(lp0
S'136.63.86.135:3128'
p1
aS'198.35.55.147:443'
p2
aS'34.207.120.79:80'
p3
aS'67.164.188.5:3128'
p4
aS'12.157.129.35:8080'
p5
aS'162.243.140.150:8080'
p6
aS'35.194.130.125:3128'
p7
aS'192.241.157.151:8080'
p8
aS'162.243.18.46:3128'
p9
aS'184.185.166.27:8080'
p10
aV111.13.2.131:80
p11
aV61.152.81.193:9100
p12
aV162.243.18.46:3128
p13
aV183.232.65.202:3128
p14
aV111.13.109.27:80
p15
aV222.196.33.254:3128
p16
aV111.13.7.120:80
p17
aV111.13.2.138:80
p18
aV111.13.7.117:80
p19
aV111.13.7.119:80
p20
aV210.61.209.197:3128
p21
aV61.136.163.245:3128
p22
aV111.13.7.122:80
p23
aV111.13.7.123:80
p24
aV106.119.0.244:8080
p25
aV120.77.255.133:8088
p26
a.