(lp0
S'124.88.117.245:808'
p1
aS'183.62.196.10:3128'
p2
aS'12.157.129.35:8080'
p3
aV61.152.81.193:9100
p4
aS'39.82.38.99:8118'
p5
aV222.196.33.254:3128
p6
aS'198.35.55.147:443'
p7
aV219.149.46.151:3128
p8
aV106.119.0.244:8080
p9
aV111.13.2.131:80
p10
aV61.136.163.245:3128
p11
aS'184.185.166.27:8080'
p12
aV120.77.255.133:8088
p13
aS'64.77.242.74:3128'
p14
aV210.61.209.197:3128
p15
aV111.13.7.119:80
p16
aS'138.197.83.21:8080'
p17
aV111.13.7.123:80
p18
aV111.13.7.117:80
p19
aS'192.241.157.151:8080'
p20
aV111.13.7.122:80
p21
aS'54.158.134.115:80'
p22
aS'162.243.18.46:3128'
p23
aV111.13.7.120:80
p24
aV111.13.109.27:80
p25
aS'165.227.124.179:3128'
p26
aV183.232.65.202:3128
p27
a.