(lp0
S'165.227.92.177:80'
p1
aS'138.197.83.21:8080'
p2
aS'165.227.124.179:3128'
p3
aS'159.203.112.118:3128'
p4
aS'216.32.29.4:8008'
p5
aS'54.187.52.159:80'
p6
aS'199.195.253.124:3128'
p7
aV111.13.109.27:80
p8
aV222.196.33.254:3128
p9
aV111.13.7.120:80
p10
aV111.13.2.138:80
p11
aV111.13.7.117:80
p12
aV111.13.7.119:80
p13
aV210.61.209.197:3128
p14
aV61.136.163.245:3128
p15
aV111.13.7.122:80
p16
aV111.13.7.123:80
p17
aV106.119.0.244:8080
p18
aV93.91.112.185:80
p19
aV183.232.65.203:3128
p20
aV111.13.2.131:80
p21
aV61.152.81.193:9100
p22
aV162.243.18.46:3128
p23
a.