(lp0
I12438
aI104700
aI1039895
aI91725
aI7535
aI2116
aI4292
aI95456
aI8326
aI2115
aI98105
aI8151
aI10204
aI48161
aI69270
aI9630
aI31200
aI7760
aI1045123
aI5782
aI84061
aI44263
aI10577
aI99988
aI900106
aI48439
aI9615
aI46197
aI42938
aI97516
aI8334
aI66020
aI5205
aI53326
aI74618
aI9271
aI35353
aI41937
aI8103
aI9106
aI10584
aI8325
aI48012
aI6462
aI10563
aI6454
aI44343
aI11679
aI7894
aI66361
aI54020
aI95439
aI3683
aI9102
aI10569
aI33184
aI64143
aI6731
aI96266
aI8921
aI9606
aI87066
aI74625
aI88151
aI5073
aI10607
aI10296
aI95589
aI5197
aI768208
aI42403
aI38731
aI32665
aI46493
aI53289
aI48093
aI95442
aI4031
aI8291
aI199144
aI9280
aI762135
aI964486
aI6494
aI7537
aI16017
aI66369
aI48436
aI34973
aI893484
aI16821
aI9943
aI31291
aI12991
aI88149
aI30899
aI101990
aI124830
aI74710
aI97094
aI34435
aI41143
aI74681
aI9255
aI7667
aI44302
aI85544
aI5427
aI83951
aI55531
aI10249
aI6670
aI10559
aI7217
aI50969
aI768065
aI50899
aI36716
aI81222
aI62677
aI41926
aI4569
aI12712
aI34517
aI8358
aI8366
aI60879
aI74644
aI12326
aI89365
aI85545
aI9167
aI8678
aI3081
aI2135
aI10561
aI10582
aI65198
aI820340
aI9061
aI98351
aI40281
aI88145
aI101953
aI40437
aI72724
aI1071031
aI50957
aI9942
aI1181173
aI10998
aI90511
aI32670
aI16686
aI1078348
aI13422
aI3827
aI103121
aI5357
aI6464
aI1150179
aI60927
aI44287
aI89658
aI50890
aI34327
aI62719
aI56598
aI12382970
aI60932
aI5793
aI52979
aI40055
aI102028
aI40266
aI9275
aI86644
aI1047074
aI40245
aI34911
aI5775
aI6495
aI9282
aI12258420
aI9272
aI8009
aI45836
aI14176
aI89361
aI64185
aI93186
aI15289
aI844410
aI41966
aI9633
aI13579
aI33846
aI754010
aI12025552
aI64146
aI48432
aI711683
aI3515
aI39556
aI912120
aI10578
aI35342
aI74738
aI69009
aI48474
aI861203
aI38127
aI12933
aI9823
aI27604
aI11952
aI3086
aI66349
aI7220
aI3722
aI12347360
aI38124
aI66344
aI85289
aI174014
aI56782
aI28727
aI8329
aI10355
aI37065
aI7086
aI70840
aI9178
aI55454
aI816461
aI12453
aI7541
aI43005
aI12707
aI5200
aI45839
aI806048
aI74518
aI9939
aI34134
aI64131
aI96632
aI123825
aI101993
aI1032313
aI973004
aI129271
aI3498
aI3701
aI9947
aI5529
aI0
aI8463
aI16414
aI36911
aI12709
aI192289
aI4947
aI9952
aI9622
aI14956
aI3699
aI9269
aI835002
aI188565
aI33664
aI35054
aI66355
aI11363
aI1196009
aI3079
aI62935
aI2526
aI3715
aI161438
aI9950
aI89363
aI893259
aI10565
aI63901
aI4941
aI53092
aI5781
aI59236
aI48152
aI3071
aI9161
aI7237
aI10557
aI35469
aI15850
aI9270
aI130638
aI46173
aI62896
aI8331
aI188853
aI9609
aI3695
aI34639
aI55542
aI14965
aI78212
aI129247
aI9945
aI65971
aI444990
aI9604
aI5786
aI62646
aI33358
aI3754
aI55469
aI1006074
aI975482
aI136782
aI981005
aI14437
aI863042
aI31211
aI13398
aI10396
aI10199
aI46376
aI9352
aI783190
aI12065133
aI22247
aI784001
aI60923
aI55536
aI2150
aI7912
aI839873
aI16069
aI85521
aI740216
aI837060
aI3686
aI92453
aI1124213
aI3064
aI31187
aI0
aI33546
aI6498
aI15252
aI211925
aI59238
aI7901
aI102035
aI804174
aI3684
aI83519
aI38854
aI13950
aI810011
aI74801
aI9971
aI4080
aI99381
aI95446
aI62899
aI105493
aI40859
aI178059
aI42392
aI70821
aI11265
aI4723
aI35349
aI74615
aI896177
aI200829
aI10593
aI50894
aI38849
aI101982
aI60351
aI10211
aI7662
aI53244
a.