c__builtin__
set
p0
((lp1
I0
aI10249
aI96266
aI981005
aI16414
aI12326
aI53289
aI98351
aI28727
aI10296
aI768065
aI2115
aI2116
aI14408
aI53326
aI88145
aI88149
aI88151
aI84061
aI34911
aI8291
aI14437
aI2150
aI10355
aI1032313
aI200829
aI10371
aI8325
aI8326
aI8329
aI8331
aI8334
aI8336
aI188565
aI12438
aI10396
aI34973
aI55454
aI12453
aI8358
aI55469
aI8366
aI30899
aI41143
aI839873
aI4292
aI37065
aI973004
aI768208
aI129247
aI55520
aI55531
aI35054
aI55536
aI9939
aI55542
aI129271
aI104700
aI9942
aI8463
aI762135
aI36911
aI92453
aI74801
aI16686
aI7901
aI6452
aI6454
aI9609
aI6456
aI6457
aI102714
aI6460
aI10557
aI6462
aI10559
aI6464
aI10561
aI10562
aI10563
aI33846
aI10569
aI893259
aI9272
aI10578
aI10582
aI10584
aI754010
aI6494
aI6495
aI10593
aI6498
aI22247
aI12065133
aI10607
aI96632
aI78212
aI64185
aI90511
aI15289
aI63901
aI33184
aI12707
aI12709
aI12712
aI52979
aI16821
aI9971
aI31187
aI4569
aI2526
aI31200
aI66020
aI8678
aI199144
aI31211
aI1006074
aI6652
aI5205
aI35329
aI2135
aI35342
aI35349
aI35353
aI1047074
aI893484
aI65971
aI31291
aI444990
aI188853
aI6731
aI33358
aI99381
aI14956
aI4723
aI86644
aI14965
aI844410
aI1045123
aI39556
aI12933
aI35469
aI64143
aI64146
aI64147
aI66212
aI12258420
aI12991
aI103121
aI8918
aI8921
aI8922
aI8926
aI10998
aI912120
aI12382970
aI54020
aI33546
aI45836
aI45839
aI74518
aI66344
aI66349
aI66355
aI66361
aI21309
aI66369
aI863042
aI97094
aI4941
aI4947
aI783190
aI9061
aI74613
aI74615
aI74616
aI74618
aI12437
aI33664
aI74625
aI48012
aI9102
aI9106
aI74644
aI7061
aI7086
aI123825
aI74681
aI40437
aI38731
aI41926
aI9161
aI9167
aI5073
aI3715
aI211925
aI74710
aI9178
aI48093
aI60923
aI41966
aI74738
aI3064
aI3071
aI11265
aI93186
aI711683
aI3079
aI3081
aI900106
aI3086
aI861203
aI72724
aI105493
aI48152
aI87066
aI810011
aI48161
aI9255
aI7214
aI7217
aI7219
aI7220
aI9269
aI9270
aI9271
aI7224
aI7225
aI9275
aI9280
aI9282
aI7237
aI1078348
aI5197
aI5199
aI5200
aI6670
aI13398
aI53092
aI46173
aI11363
aI167013
aI13422
aI820340
aI46197
aI46198
aI40055
aI9352
aI34327
aI806048
aI70821
aI896177
aI62646
aI70840
aI95439
aI740216
aI95442
aI62677
aI95446
aI95456
aI1150179
aI44263
aI38124
aI5357
aI38127
aI3322
aI62719
aI13579
aI44302
aI7439
aI89361
aI89363
aI89365
aI56598
aI46376
aI85289
aI11562
aI48432
aI5427
aI48436
aI40245
aI48439
aI81222
aI40266
aI816461
aI804174
aI34134
aI40281
aI48474
aI95589
aI7535
aI7537
aI7541
aI15252
aI9604
aI9606
aI97516
aI9615
aI69009
aI9621
aI9622
aI46487
aI42392
aI5529
aI46490
aI46493
aI9630
aI11679
aI9633
aI42403
aI62885
aI62888
aI3498
aI62896
aI62899
aI124830
aI835002
aI3515
aI837060
aI56782
aI60879
aI136782
aI62935
aI15850
aI7662
aI7667
aI1181173
aI44287
aI60927
aI60932
aI85521
aI1039895
aI85544
aI85545
aI89658
aI83519
aI101953
aI91725
aI130638
aI7760
aI122455
aI101982
aI9823
aI3683
aI3684
aI3686
aI101990
aI101993
aI3691
aI3695
aI3699
aI3701
aI3706
aI60351
aI13950
aI784001
aI34435
aI3722
aI102028
aI5775
aI16017
aI102035
aI99988
aI5781
aI69270
aI5786
aI161438
aI5793
aI3754
aI65198
aI11952
aI16069
aI50890
aI50894
aI12025552
aI50899
aI34517
aI7894
aI9943
aI9945
aI9947
aI975482
aI9950
aI9951
aI9952
aI41937
aI7912
aI3827
aI50934
aI27604
aI18172
aI10199
aI50957
aI64131
aI50969
aI192289
aI98105
aI8009
aI44343
aI34639
aI14176
aI59236
aI59238
aI36716
aI1124213
aI5782
aI964486
aI178059
aI32665
aI40859
aI32670
aI10565
aI8103
aI1071031
aI42938
aI174014
aI4031
aI38849
aI38854
aI8151
aI10204
aI12347360
aI10209
aI10211
aI10577
aI1196009
aI83951
aI4080
aI53235
aI53244
aI43005
atp2
Rp3
.