(dp0
V\u9b54\u6770\u5ea7
p1
(dp2
V\u4e54\u514b\u53d4\u53d4
p3
I8306
sV\u82b1\u6d77
p4
I25192
sV\u9b54\u672f\u5148\u751f
p5
I6365
sV\u86c7\u821e
p6
I6590
sV\u7ed9\u6211\u4e00\u9996\u6b4c\u7684\u65f6\u95f4
p7
I23878
sV\u9f99\u6218\u9a91\u58eb
p8
I12066
sV\u65f6\u5149\u673a
p9
I12721
sV\u6d41\u6d6a\u8bd7\u4eba
p10
I6172
sV\u5170\u4ead\u5e8f
p11
I14280
sV\u8bf4\u597d\u7684\u5e78\u798f\u5462
p12
I31932
sV\u7a3b\u9999
p13
I61263
ssV\u6211\u5f88\u5fd9
p14
(dp15
V\u5f69\u8679
p16
I61786
sV\u9752\u82b1\u74f7
p17
I34769
sV\u725b\u4ed4\u5f88\u5fd9
p18
I10947
sV\u9633\u5149\u5b85\u7537
p19
I12379
sV\u65e0\u53cc
p20
I8300
sV\u626f
p21
I7249
sV\u6211\u4e0d\u914d
p22
I25951
sV\u6700\u957f\u7684\u7535\u5f71
p23
I32162
sV\u84b2\u516c\u82f1\u7684\u7ea6\u5b9a
p24
I40566
sV\u751c\u751c\u7684
p25
I35013
ssV\u970d\u5143\u7532EP
p26
(dp27
V\u732e\u4e16 (Live) - live
p28
I5692
sV\u970d\u5143\u7532
p29
I20495
ssV\u8de8\u65f6\u4ee3
p30
(dp31
V\u7231\u7684\u98de\u884c\u65e5\u8bb0
p32
I13100
sV\u96e8\u4e0b\u4e00\u6574\u665a
p33
I21721
sV\u563b\u54c8\u7a7a\u59d0
p34
I4929
sV\u8de8\u65f6\u4ee3
p35
I7788
sV\u8bf4\u4e86\u518d\u89c1
p36
I24797
sV\u6211\u843d\u6cea \u60c5\u7eea\u96f6\u788e
p37
I13471
sV\u514d\u8d39\u6559\u5b66\u5f55\u50cf\u5e26
p38
I7473
sV\u70df\u82b1\u6613\u51b7
p39
I32068
sV\u597d\u4e45\u4e0d\u89c1
p40
I7850
sV\u81ea\u5bfc\u81ea\u6f14
p41
I10492
sV\u8d85\u4eba\u4e0d\u4f1a\u98de
p42
I15929
ssV\u53f6\u60e0\u7f8e
p43
(dp44
V\u53cc\u5200
p45
I14277
sV\u540c\u4e00\u79cd\u8c03\u8c03
p46
I11082
sV\u4ee5\u7236\u4e4b\u540d
p47
I93147
sV\u4e09\u5e74\u4e8c\u73ed
p48
I23913
sV\u5979\u7684\u776b\u6bdb
p49
I17069
sV\u4f60\u542c\u5f97\u5230
p50
I27919
sV\u6674\u5929
p51
I1746492
sV\u7231\u60c5\u60ac\u5d16
p52
I13716
sV\u4e1c\u98ce\u7834
p53
I30092
sV\u61e6\u592b
p54
I10168
sV\u68af\u7530
p55
I14158
ssV\u5341\u4e8c\u65b0\u4f5c
p56
(dp57
V\u56db\u5b63\u5217\u8f66
p58
I5662
sV\u50bb\u7b11
p59
I6095
sV\u7ea2\u5c18\u5ba2\u6808
p60
I14025
sV\u68a6\u60f3\u542f\u52a8
p61
I7739
sV\u4e4c\u514b\u4e3d\u4e3d
p62
I13726
sV\u5927\u7b28\u949f
p63
I10323
sV\u6bd4\u8f83\u5927\u7684\u5927\u63d0\u7434
p64
I5384
sV\u624b\u8bed
p65
I7694
sV\u516c\u516c\u504f\u5934\u75db
p66
I7158
sV\u7231\u4f60\u6ca1\u5dee
p67
I7130
sV\u54ea\u91cc\u90fd\u662f\u4f60
p68
I12887
sV\u660e\u660e\u5c31
p69
I25139
ssVPartners \u62cd\u6863
p70
(dp71
V\u5200\u9a6c\u65e6
p72
I2629
sV\u591c\u7a7a\u7684\u7cbe\u7075
p73
I348
sV\u4e0a\u6d77\u4e00\u4e5d\u56db\u4e09
p74
I1270
sV\u843d\u96e8\u58f0
p75
I251
sV\u80e1\u540c\u91cc\u6709\u53ea\u732b
p76
I480
sV\u7535\u706f\u6ce1
p77
I143
sV\u7231\u5728\u897f\u5143\u524d
p78
I1143
sV\u53cd\u65b9\u5411\u7684\u949f
p79
I1033
sV\u4f60\u6bd4\u4ece\u524d\u5feb\u4e50
p80
I254
sV\u52a8\u5fc3
p81
I296
sV\u5a18\u5b50
p82
I591
sV\u7981\u6b62\u60b2\u4f24
p83
I288
sV\u7535\u706f\u6ce1 II
p84
I203
ssV\u5bfb\u627e\u5468\u6770\u4f26
p85
(dp86
V\u8f68\u8ff9
p87
I48883
sV\u65ad\u4e86\u7684\u5f26
p88
I19978
sV\u8f68\u8ff9(\u4f34\u594f)
p89
I880
sV\u65ad\u4e86\u7684\u5f26(\u4f34\u594f)
p90
I550
ssVJay \u540c\u540d\u4e13\u8f91
p91
(dp92
V\u5b8c\u7f8e\u4e3b\u4e49
p93
I7934
sV\u53ef\u7231\u5973\u4eba
p94
I32728
sV\u9ed1\u8272\u5e7d\u9ed8
p95
I16299
sV\u661f\u6674
p96
I21455
sV\u53cd\u65b9\u5411\u7684\u949f
p97
I19124
sV\u9f99\u5377\u98ce
p98
I30093
sV\u5a18\u5b50
p99
I10131
sV\u6597\u725b
p100
I8735
sV\u4f0a\u65af\u5766\u5821
p101
I7450
sV\u5370\u7b2c\u5b89\u8001\u6591\u9e20
p102
I19535
ssV\u5468\u6770\u4f26\u7684\u5e8a\u8fb9\u6545\u4e8b
p103
(dp104
VNow You See Me
p105
I26015
sV\u4e0d\u8be5(with aMEI)
p106
I49487
sV\u7231\u60c5\u5e9f\u67f4
p107
I37073
sV\u8bf4\u8d70\u5c31\u8d70
p108
I31464
sV\u571f\u8033\u5176\u51b0\u6dc7\u6dcb
p109
I27956
sV\u544a\u767d\u6c14\u7403
p110
I335583
sV\u4e00\u70b9\u70b9
p111
I50320
sV\u82f1\u96c4
p112
I20800
sV\u524d\u4e16\u60c5\u4eba
p113
I36516
sV\u5e8a\u8fb9\u6545\u4e8b
p114
I64458
ssV\u60ca\u53f9\u53f7
p115
(dp116
V\u6c34\u624b\u6015\u6c34
p117
I6386
sV\u60ca\u53f9\u53f7
p118
I7594
sV\u4f60\u597d\u5417
p119
I13030
sV\u8ff7\u9b42\u66f2
p120
I10528
sV\u4e16\u754c\u672a\u672b\u65e5
p121
I7103
sVMine Mine
p122
I11904
sV\u8d85\u8dd1\u5973\u795e
p123
I7969
sV\u7597\u4f24\u70e7\u8089\u7cbd
p124
I10308
sV\u7434\u4f24
p125
I11951
sV\u516c\u4e3b\u75c5
p126
I12756
sV\u76ae\u5f71\u620f
p127
I7039
ssS'Fantasy Plus'
p128
(dp129
V\u4f60\u6bd4\u4ece\u524d\u5feb\u4e50
p130
I10856
sV\u4e16\u754c\u672b\u65e5
p131
I30351
sV\u8717\u725b
p132
I23234
ssS'Initial J'
p133
(dp134
V\u5fcd\u8005
p135
I1275
sV\u53cc\u622a\u68cd
p136
I1228
sV\u53cc\u5200
p137
I1156
sV\u9ed1\u8272\u5e7d\u9ed8
p138
I1391
sV\u4e00\u8def\u5411\u5317
p139
I2971
sV\u4ee5\u7236\u4e4b\u540d
p140
I1713
sV\u6700\u540e\u7684\u6218\u5f79
p141
I1404
sV\u53ef\u7231\u5973\u4eba
p142
I1312
sV\u98d8\u79fb
p143
I2362
sV\u4e03\u91cc\u9999
p144
I1670
sV\u5916\u5a46
p145
I1395
sV\u4e1c\u98ce\u7834
p146
I1446
ssV\u82f1\u96c4
p147
(dp148
V\u82f1\u96c4
p149
I75304
ssV\u516b\u5ea6\u7a7a\u95f4
p150
(dp151
V\u7237\u7237\u6ce1\u7684\u8336
p152
I14187
sV\u534a\u517d\u4eba
p153
I15515
sV\u7c73\u5170\u7684\u5c0f\u94c1\u5320
p154
I12080
sV\u5206\u88c2(\u79bb\u5f00)
p155
I18282
sV\u6700\u540e\u7684\u6218\u5f79
p156
I17727
sV\u706b\u8f66\u53e8\u4f4d\u53bb
p157
I12210
sV\u6697\u53f7
p158
I28990
sV\u56de\u5230\u8fc7\u53bb
p159
I38844
sV\u9f99\u62f3
p160
I14701
sV\u534a\u5c9b\u94c1\u76d2
p161
I42830
ssV\u4e0d\u80fd\u8bf4\u7684\u79d8\u5bc6 \u7535\u5f71\u539f\u58f0\u5e26
p162
(dp163
VThe Swan
p164
I1280
sVRide With Me
p165
I1423
sV\u5973\u5b69\u522b\u4e3a\u6211\u54ed\u6ce3
p166
I1183
sVFlash Back
p167
I1305
sV\u7434\u623f
p168
I1701
sVOpening
p169
I1582
sV\u6de1\u6c34\u6d77\u8fb9
p170
I3608
sVSecret (\u52a0\u957f\u5feb\u677f)
p171
I4356
sV\u4e0d\u80fd\u8bf4\u7684\u79d8\u5bc6
p172
I51519
sV\u6597\u7434
p173
I2275
sV\u6e58\u4f26\u5c0f\u96e8\u56db\u624b\u8054\u5f39
p174
I1700
sV\u4e0e\u7236\u5171\u821e
p175
I1058
sV\u65e9\u64cd
p176
I2436
sV\u5c0f\u96e8\u5199\u7acb\u53ef\u767d\u2160
p177
I3379
sV\u5c0f\u96e8\u5199\u7acb\u53ef\u767d\u2161
p178
I3029
sV\u6674\u5929\u5a03\u5a03
p179
I4234
sVSecret (\u6162\u677f)
p180
I1623
sV\u7236\u4e0e\u5b50
p181
I1615
sVFirst Kiss
p182
I2226
sV\u811a\u8e0f\u8f66
p183
I4534
sVAngel
p184
I2863
sV\u60c5\u4eba\u7684\u773c\u6cea
p185
I2024
sV\u8def\u5c0f\u96e8
p186
I5532
sVEnding
p187
I1673
sV\u963f\u90ce\u4e0e\u963f\u5b9d
p188
I1645
ssV\u5929\u53f0 \u7535\u5f71\u539f\u58f0\u5e26
p189
(dp190
V\u6c14\u52bf
p191
I194
sV\u65e0\u52a9
p192
I159
sV\u70ed\u8840\u7801\u5934
p193
I165
sV\u5144\u5f1f\u7684\u5b89\u6170
p194
I252
sV\u5c4b\u9876\u4e0a\u7684\u613f\u671b
p195
I305
sV\u60c5\u4eba\u6e56\u591c\u5e02
p196
I436
sV\u6ce2\u7237
p197
I2156
sV\u5a01\u5c11\u7684\u9677\u9631
p198
I188
sVStrike
p199
I146
sV\u5929\u53f0\u7684\u6708\u5149 (\u5409\u4ed6\u7248)
p200
I1050
sV\u7f8e\u666f
p201
I336
sV\u54ea\u91cc\u90fd\u662f\u4f60
p202
I1454
sV\u9f99\u95e8\u6fa1\u5802
p203
I306
sV\u6c34\u7ba1\u7684\u53cb\u60c5
p204
I565
sV\u9ab0\u5b50
p205
I137
sV\u7af9\u7aff\u821e
p206
I262
sV\u6d6a\u5b50\u818f
p207
I230
sV\u4fdd\u9f84\u7537\u5b69
p208
I398
sV\u5929\u53f0
p209
I1519
sV\u7f8e\u672f\u9986
p210
I261
sV\u60b2\u5267\u7684\u5e8f\u5e55
p211
I256
sVGoodbye
p212
I330
sV\u94b1\u96be\u8d5a
p213
I862
sV\u635e\u91d1\u9c7c
p214
I185
sV\u4ea1\u547d\u8ffd\u9010
p215
I219
sV\u82f1\u96c4\u4e4b\u6b4c
p216
I224
sV\u901b\u591c\u5e02
p217
I278
sV\u5feb\u95e8\u6162\u821e
p218
I902
sV\u963f\u90ce\u7684\u7ae5\u5e74
p219
I125
sV\u5927\u660e\u661f
p220
I1429
sV\u72d7\u4ed4\u821e
p221
I1432
sV\u6253\u67b6\u821e
p222
I1306
sV\u5929\u53f0\u7684\u6708\u5149
p223
I3378
sVYou're My Everything
p224
I397
sVIf
p225
I730
ssV\u9ec4\u91d1\u7532EP
p226
(dp227
V\u83ca\u82b1\u53f0(\u6770\u4f26\u94a2\u7434\u6f14\u594f\u7248)
p228
I1931
sV\u9ec4\u91d1\u7532
p229
I8174
ssV\u8303\u7279\u897f
p230
(dp231
V\u5fcd\u8005
p232
I16763
sV\u5b89\u9759
p233
I52139
sV\u5f00\u4e0d\u4e86\u53e3
p234
I48152
sV\u5bf9\u4e0d\u8d77
p235
I13786
sV\u5a01\u5ec9\u53e4\u5821
p236
I15063
sV\u7238\u6211\u56de\u6765\u4e86
p237
I11531
sV\u7b80\u5355\u7231
p238
I41381
sV\u4e0a\u6d77\u4e00\u4e5d\u56db\u4e09
p239
I19246
sV\u7231\u5728\u897f\u5143\u524d
p240
I27850
sV\u53cc\u622a\u68cd
p241
I23026
ssV\u4f9d\u7136\u8303\u7279\u897f
p242
(dp243
V\u591c\u7684\u7b2c\u4e03\u7ae0
p244
I43059
sV\u767d\u8272\u98ce\u8f66
p245
I18483
sV\u8ff7\u8fed\u9999
p246
I13117
sV\u5fc3\u96e8
p247
I14549
sV\u7ea2\u6a21\u4eff
p248
I14010
sV\u9000\u540e
p249
I27765
sV\u672c\u8349\u7eb2\u76ee
p250
I16166
sV\u542c\u5988\u5988\u7684\u8bdd
p251
I39609
sV\u5343\u91cc\u4e4b\u5916
p252
I19221
sV\u83ca\u82b1\u53f0
p253
I16062
ssV\u54ce\u5466\uff0c\u4e0d\u9519\u54e6
p254
(dp255
V\u600e\u4e48\u4e86
p256
I9216
sV\u6211\u8981\u590f\u5929
p257
I9922
sV\u4e00\u53e3\u6c14\u5168\u5ff5\u5bf9
p258
I12305
sV\u5929\u6daf\u8fc7\u5ba2
p259
I15620
sV\u542c\u89c1\u4e0b\u96e8\u7684\u58f0\u97f3
p260
I28719
sV\u7f8e\u4eba\u9c7c
p261
I18609
sV\u624b\u5199\u7684\u4ece\u524d
p262
I35748
sV\u9633\u660e\u5c71
p263
I6136
sV\u542c\u7238\u7238\u7684\u8bdd
p264
I13121
sV\u978b\u5b50\u7279\u5927\u53f7
p265
I11534
sV\u7a83\u7231
p266
I9174
sV\u7b97\u4ec0\u4e48\u7537\u4eba
p267
I39699
ssV\u5927\u5934\u8d34
p268
(dp269
V\u5927\u5934\u8d34
p270
I4660
ssV\u5341\u4e00\u6708\u7684\u8427\u90a6
p271
(dp272
V\u56db\u9762\u695a\u6b4c
p273
I17663
sV\u6d6a\u6f2b\u624b\u673a
p274
I15173
sV\u591c\u66f2
p275
I60243
sV\u4e00\u8def\u5411\u5317
p276
I77755
sV\u67ab
p277
I41649
sV\u9ea6\u82bd\u7cd6
p278
I11021
sV\u9006\u9cde
p279
I12167
sV\u9ed1\u8272\u6bdb\u8863
p280
I24286
sV\u98d8\u79fb
p281
I21434
sV\u84dd\u8272\u98ce\u66b4
p282
I10435
sV\u73ca\u745a\u6d77
p283
I26993
sV\u53d1\u5982\u96ea
p284
I30425
ssV\u4e03\u91cc\u9999
p285
(dp286
V\u6211\u7684\u5730\u76d8
p287
I14459
sV\u6401\u6d45
p288
I39216
sV\u5916\u5a46
p289
I19135
sV\u4e71\u821e\u6625\u79cb
p290
I17221
sV\u5c06\u519b
p291
I18351
sV\u6b62\u6218\u4e4b\u6b87
p292
I20135
sV\u4e03\u91cc\u9999
p293
I156670
sV\u56f0\u517d\u4e4b\u6597
p294
I13189
sV\u56ed\u6e38\u4f1a
p295
I31013
sV\u501f\u53e3
p296
I27831
ss.