(dp0
V\u9b54\u6770\u5ea7
p1
(dp2
V\u4e54\u514b\u53d4\u53d4
p3
I8264
sV\u82b1\u6d77
p4
I25124
sV\u9b54\u672f\u5148\u751f
p5
I6344
sV\u86c7\u821e
p6
I6559
sV\u7ed9\u6211\u4e00\u9996\u6b4c\u7684\u65f6\u95f4
p7
I23753
sV\u9f99\u6218\u9a91\u58eb
p8
I12034
sV\u65f6\u5149\u673a
p9
I12698
sV\u6d41\u6d6a\u8bd7\u4eba
p10
I6146
sV\u5170\u4ead\u5e8f
p11
I14253
sV\u8bf4\u597d\u7684\u5e78\u798f\u5462
p12
I31743
sV\u7a3b\u9999
p13
I61060
ssV\u9ec4\u91d1\u7532EP
p14
(dp15
V\u83ca\u82b1\u53f0(\u6770\u4f26\u94a2\u7434\u6f14\u594f\u7248)
p16
I1922
sV\u9ec4\u91d1\u7532
p17
I8134
ssV\u970d\u5143\u7532EP
p18
(dp19
V\u732e\u4e16 (Live) - live
p20
I5673
sV\u970d\u5143\u7532
p21
I20451
ssV\u8de8\u65f6\u4ee3
p22
(dp23
V\u7231\u7684\u98de\u884c\u65e5\u8bb0
p24
I13063
sV\u96e8\u4e0b\u4e00\u6574\u665a
p25
I21653
sV\u563b\u54c8\u7a7a\u59d0
p26
I4900
sV\u8de8\u65f6\u4ee3
p27
I7750
sV\u8bf4\u4e86\u518d\u89c1
p28
I24724
sV\u6211\u843d\u6cea \u60c5\u7eea\u96f6\u788e
p29
I13442
sV\u514d\u8d39\u6559\u5b66\u5f55\u50cf\u5e26
p30
I7452
sV\u70df\u82b1\u6613\u51b7
p31
I31967
sV\u597d\u4e45\u4e0d\u89c1
p32
I7824
sV\u81ea\u5bfc\u81ea\u6f14
p33
I10470
sV\u8d85\u4eba\u4e0d\u4f1a\u98de
p34
I15886
ssV\u53f6\u60e0\u7f8e
p35
(dp36
V\u53cc\u5200
p37
I14243
sV\u540c\u4e00\u79cd\u8c03\u8c03
p38
I11066
sV\u4ee5\u7236\u4e4b\u540d
p39
I92746
sV\u4e09\u5e74\u4e8c\u73ed
p40
I23806
sV\u5979\u7684\u776b\u6bdb
p41
I17027
sV\u4f60\u542c\u5f97\u5230
p42
I27833
sV\u6674\u5929
p43
I1740742
sV\u7231\u60c5\u60ac\u5d16
p44
I13674
sV\u4e1c\u98ce\u7834
p45
I29850
sV\u61e6\u592b
p46
I10146
sV\u68af\u7530
p47
I14113
ssV\u5341\u4e8c\u65b0\u4f5c
p48
(dp49
V\u56db\u5b63\u5217\u8f66
p50
I5648
sV\u50bb\u7b11
p51
I6080
sV\u7ea2\u5c18\u5ba2\u6808
p52
I13991
sV\u68a6\u60f3\u542f\u52a8
p53
I7720
sV\u4e4c\u514b\u4e3d\u4e3d
p54
I13687
sV\u5927\u7b28\u949f
p55
I10296
sV\u6bd4\u8f83\u5927\u7684\u5927\u63d0\u7434
p56
I5370
sV\u624b\u8bed
p57
I7672
sV\u516c\u516c\u504f\u5934\u75db
p58
I7130
sV\u7231\u4f60\u6ca1\u5dee
p59
I7117
sV\u54ea\u91cc\u90fd\u662f\u4f60
p60
I12863
sV\u660e\u660e\u5c31
p61
I25058
ssVPartners \u62cd\u6863
p62
(dp63
V\u5200\u9a6c\u65e6
p64
I2623
sV\u591c\u7a7a\u7684\u7cbe\u7075
p65
I347
sV\u4e0a\u6d77\u4e00\u4e5d\u56db\u4e09
p66
I1269
sV\u843d\u96e8\u58f0
p67
I251
sV\u80e1\u540c\u91cc\u6709\u53ea\u732b
p68
I480
sV\u7535\u706f\u6ce1
p69
I143
sV\u7231\u5728\u897f\u5143\u524d
p70
I1140
sV\u53cd\u65b9\u5411\u7684\u949f
p71
I1030
sV\u4f60\u6bd4\u4ece\u524d\u5feb\u4e50
p72
I254
sV\u52a8\u5fc3
p73
I296
sV\u5a18\u5b50
p74
I591
sV\u7981\u6b62\u60b2\u4f24
p75
I288
sV\u7535\u706f\u6ce1 II
p76
I203
ssV\u5bfb\u627e\u5468\u6770\u4f26
p77
(dp78
V\u8f68\u8ff9
p79
I48727
sV\u65ad\u4e86\u7684\u5f26
p80
I19925
sV\u8f68\u8ff9(\u4f34\u594f)
p81
I876
sV\u65ad\u4e86\u7684\u5f26(\u4f34\u594f)
p82
I549
ssVJay \u540c\u540d\u4e13\u8f91
p83
(dp84
V\u5b8c\u7f8e\u4e3b\u4e49
p85
I7883
sV\u53ef\u7231\u5973\u4eba
p86
I32617
sV\u9ed1\u8272\u5e7d\u9ed8
p87
I16263
sV\u661f\u6674
p88
I21396
sV\u53cd\u65b9\u5411\u7684\u949f
p89
I18968
sV\u9f99\u5377\u98ce
p90
I29959
sV\u5a18\u5b50
p91
I10103
sV\u6597\u725b
p92
I8706
sV\u4f0a\u65af\u5766\u5821
p93
I7420
sV\u5370\u7b2c\u5b89\u8001\u6591\u9e20
p94
I19465
ssV\u5468\u6770\u4f26\u7684\u5e8a\u8fb9\u6545\u4e8b
p95
(dp96
S'Now You See Me'
p97
I25953
sV\u4e0d\u8be5(with aMEI)
p98
I49437
sV\u7231\u60c5\u5e9f\u67f4
p99
I37013
sV\u8bf4\u8d70\u5c31\u8d70
p100
I31409
sV\u571f\u8033\u5176\u51b0\u6dc7\u6dcb
p101
I27921
sV\u544a\u767d\u6c14\u7403
p102
I334819
sV\u4e00\u70b9\u70b9
p103
I50223
sV\u82f1\u96c4
p104
I20740
sV\u524d\u4e16\u60c5\u4eba
p105
I36478
sV\u5e8a\u8fb9\u6545\u4e8b
p106
I64409
ssV\u60ca\u53f9\u53f7
p107
(dp108
V\u6c34\u624b\u6015\u6c34
p109
I6372
sV\u60ca\u53f9\u53f7
p110
I7577
sV\u4f60\u597d\u5417
p111
I13005
sV\u8ff7\u9b42\u66f2
p112
I10499
sV\u4e16\u754c\u672a\u672b\u65e5
p113
I7090
sS'Mine Mine'
p114
I11886
sV\u8d85\u8dd1\u5973\u795e
p115
I7936
sV\u7597\u4f24\u70e7\u8089\u7cbd
p116
I10270
sV\u7434\u4f24
p117
I11932
sV\u516c\u4e3b\u75c5
p118
I12726
sV\u76ae\u5f71\u620f
p119
I7015
ssS'Fantasy Plus'
p120
(dp121
V\u4f60\u6bd4\u4ece\u524d\u5feb\u4e50
p122
I10826
sV\u4e16\u754c\u672b\u65e5
p123
I30258
sV\u8717\u725b
p124
I23165
ssS'Initial J'
p125
(dp126
V\u5fcd\u8005
p127
I1271
sV\u53cc\u622a\u68cd
p128
I1224
sV\u53cc\u5200
p129
I1155
sV\u9ed1\u8272\u5e7d\u9ed8
p130
I1384
sV\u4e00\u8def\u5411\u5317
p131
I2966
sV\u4ee5\u7236\u4e4b\u540d
p132
I1705
sV\u6700\u540e\u7684\u6218\u5f79
p133
I1401
sV\u53ef\u7231\u5973\u4eba
p134
I1308
sV\u98d8\u79fb
p135
I2345
sV\u4e03\u91cc\u9999
p136
I1663
sV\u5916\u5a46
p137
I1389
sV\u4e1c\u98ce\u7834
p138
I1444
ssV\u82f1\u96c4
p139
(dp140
V\u82f1\u96c4
p141
I75284
ssV\u516b\u5ea6\u7a7a\u95f4
p142
(dp143
V\u7237\u7237\u6ce1\u7684\u8336
p144
I14147
sV\u534a\u517d\u4eba
p145
I15474
sV\u7c73\u5170\u7684\u5c0f\u94c1\u5320
p146
I12052
sV\u5206\u88c2(\u79bb\u5f00)
p147
I18255
sV\u6700\u540e\u7684\u6218\u5f79
p148
I17693
sV\u706b\u8f66\u53e8\u4f4d\u53bb
p149
I12155
sV\u6697\u53f7
p150
I28930
sV\u56de\u5230\u8fc7\u53bb
p151
I38635
sV\u9f99\u62f3
p152
I14666
sV\u534a\u5c9b\u94c1\u76d2
p153
I42628
ssV\u4e0d\u80fd\u8bf4\u7684\u79d8\u5bc6 \u7535\u5f71\u539f\u58f0\u5e26
p154
(dp155
S'The Swan'
p156
I1277
sS'Ride With Me'
p157
I1414
sV\u5973\u5b69\u522b\u4e3a\u6211\u54ed\u6ce3
p158
I1179
sS'Flash Back'
p159
I1303
sV\u7434\u623f
p160
I1698
sS'Opening'
p161
I1578
sV\u6de1\u6c34\u6d77\u8fb9
p162
I3592
sVSecret (\u52a0\u957f\u5feb\u677f)
p163
I4348
sV\u4e0d\u80fd\u8bf4\u7684\u79d8\u5bc6
p164
I51271
sV\u6597\u7434
p165
I2273
sV\u6e58\u4f26\u5c0f\u96e8\u56db\u624b\u8054\u5f39
p166
I1695
sV\u4e0e\u7236\u5171\u821e
p167
I1055
sV\u65e9\u64cd
p168
I2431
sV\u5c0f\u96e8\u5199\u7acb\u53ef\u767d\u2160
p169
I3359
sV\u5c0f\u96e8\u5199\u7acb\u53ef\u767d\u2161
p170
I3019
sV\u6674\u5929\u5a03\u5a03
p171
I4227
sVSecret (\u6162\u677f)
p172
I1621
sV\u7236\u4e0e\u5b50
p173
I1611
sS'First Kiss'
p174
I2220
sV\u811a\u8e0f\u8f66
p175
I4522
sS'Angel'
p176
I2860
sV\u60c5\u4eba\u7684\u773c\u6cea
p177
I2020
sV\u8def\u5c0f\u96e8
p178
I5503
sS'Ending'
p179
I1667
sV\u963f\u90ce\u4e0e\u963f\u5b9d
p180
I1644
ssV\u5929\u53f0 \u7535\u5f71\u539f\u58f0\u5e26
p181
(dp182
V\u6c14\u52bf
p183
I193
sV\u65e0\u52a9
p184
I159
sV\u70ed\u8840\u7801\u5934
p185
I163
sV\u5144\u5f1f\u7684\u5b89\u6170
p186
I251
sV\u5c4b\u9876\u4e0a\u7684\u613f\u671b
p187
I305
sV\u60c5\u4eba\u6e56\u591c\u5e02
p188
I436
sV\u6ce2\u7237
p189
I2152
sV\u5a01\u5c11\u7684\u9677\u9631
p190
I188
sS'Strike'
p191
I146
sV\u5929\u53f0\u7684\u6708\u5149 (\u5409\u4ed6\u7248)
p192
I1046
sV\u7f8e\u666f
p193
I336
sV\u54ea\u91cc\u90fd\u662f\u4f60
p194
I1452
sV\u9f99\u95e8\u6fa1\u5802
p195
I306
sV\u6c34\u7ba1\u7684\u53cb\u60c5
p196
I564
sV\u9ab0\u5b50
p197
I137
sV\u7af9\u7aff\u821e
p198
I262
sV\u6d6a\u5b50\u818f
p199
I230
sV\u4fdd\u9f84\u7537\u5b69
p200
I398
sV\u5929\u53f0
p201
I1518
sV\u7f8e\u672f\u9986
p202
I261
sV\u60b2\u5267\u7684\u5e8f\u5e55
p203
I256
sS'Goodbye'
p204
I330
sV\u94b1\u96be\u8d5a
p205
I858
sV\u635e\u91d1\u9c7c
p206
I185
sV\u4ea1\u547d\u8ffd\u9010
p207
I218
sV\u82f1\u96c4\u4e4b\u6b4c
p208
I224
sV\u901b\u591c\u5e02
p209
I277
sV\u5feb\u95e8\u6162\u821e
p210
I901
sV\u963f\u90ce\u7684\u7ae5\u5e74
p211
I124
sV\u5927\u660e\u661f
p212
I1427
sV\u72d7\u4ed4\u821e
p213
I1432
sV\u6253\u67b6\u821e
p214
I1305
sV\u5929\u53f0\u7684\u6708\u5149
p215
I3368
sS"You're My Everything"
p216
I397
sS'If'
p217
I730
ssV\u6211\u5f88\u5fd9
p218
(dp219
V\u5f69\u8679
p220
I61599
sV\u9752\u82b1\u74f7
p221
I34682
sV\u725b\u4ed4\u5f88\u5fd9
p222
I10933
sV\u9633\u5149\u5b85\u7537
p223
I12347
sV\u65e0\u53cc
p224
I8259
sV\u626f
p225
I7223
sV\u6211\u4e0d\u914d
p226
I25871
sV\u6700\u957f\u7684\u7535\u5f71
p227
I32047
sV\u84b2\u516c\u82f1\u7684\u7ea6\u5b9a
p228
I40423
sV\u751c\u751c\u7684
p229
I34877
ssV\u8303\u7279\u897f
p230
(dp231
V\u5fcd\u8005
p232
I16714
sV\u5b89\u9759
p233
I52011
sV\u5f00\u4e0d\u4e86\u53e3
p234
I47973
sV\u5bf9\u4e0d\u8d77
p235
I13748
sV\u5a01\u5ec9\u53e4\u5821
p236
I15026
sV\u7238\u6211\u56de\u6765\u4e86
p237
I11502
sV\u7b80\u5355\u7231
p238
I41230
sV\u4e0a\u6d77\u4e00\u4e5d\u56db\u4e09
p239
I19194
sV\u7231\u5728\u897f\u5143\u524d
p240
I27759
sV\u53cc\u622a\u68cd
p241
I22964
ssV\u4f9d\u7136\u8303\u7279\u897f
p242
(dp243
V\u591c\u7684\u7b2c\u4e03\u7ae0
p244
I42880
sV\u767d\u8272\u98ce\u8f66
p245
I18432
sV\u8ff7\u8fed\u9999
p246
I13092
sV\u5fc3\u96e8
p247
I14513
sV\u7ea2\u6a21\u4eff
p248
I13971
sV\u9000\u540e
p249
I27676
sV\u672c\u8349\u7eb2\u76ee
p250
I16111
sV\u542c\u5988\u5988\u7684\u8bdd
p251
I39493
sV\u5343\u91cc\u4e4b\u5916
p252
I19167
sV\u83ca\u82b1\u53f0
p253
I16021
ssV\u54ce\u5466\uff0c\u4e0d\u9519\u54e6
p254
(dp255
V\u600e\u4e48\u4e86
p256
I9169
sV\u6211\u8981\u590f\u5929
p257
I9660
sV\u4e00\u53e3\u6c14\u5168\u5ff5\u5bf9
p258
I12246
sV\u5929\u6daf\u8fc7\u5ba2
p259
I15605
sV\u542c\u89c1\u4e0b\u96e8\u7684\u58f0\u97f3
p260
I28647
sV\u7f8e\u4eba\u9c7c
p261
I18579
sV\u624b\u5199\u7684\u4ece\u524d
p262
I35690
sV\u9633\u660e\u5c71
p263
I6119
sV\u542c\u7238\u7238\u7684\u8bdd
p264
I13102
sV\u978b\u5b50\u7279\u5927\u53f7
p265
I11520
sV\u7a83\u7231
p266
I9144
sV\u7b97\u4ec0\u4e48\u7537\u4eba
p267
I39558
ssV\u5927\u5934\u8d34
p268
(dp269
V\u5927\u5934\u8d34
p270
I4645
ssV\u5341\u4e00\u6708\u7684\u8427\u90a6
p271
(dp272
V\u56db\u9762\u695a\u6b4c
p273
I17621
sV\u6d6a\u6f2b\u624b\u673a
p274
I15144
sV\u591c\u66f2
p275
I60036
sV\u4e00\u8def\u5411\u5317
p276
I77456
sV\u67ab
p277
I41521
sV\u9ea6\u82bd\u7cd6
p278
I11006
sV\u9006\u9cde
p279
I12133
sV\u9ed1\u8272\u6bdb\u8863
p280
I24215
sV\u98d8\u79fb
p281
I21323
sV\u84dd\u8272\u98ce\u66b4
p282
I10413
sV\u73ca\u745a\u6d77
p283
I26882
sV\u53d1\u5982\u96ea
p284
I30327
ssV\u4e03\u91cc\u9999
p285
(dp286
V\u6211\u7684\u5730\u76d8
p287
I14411
sV\u6401\u6d45
p288
I39060
sV\u5916\u5a46
p289
I19071
sV\u4e71\u821e\u6625\u79cb
p290
I17173
sV\u5c06\u519b
p291
I18295
sV\u6b62\u6218\u4e4b\u6b87
p292
I20075
sV\u4e03\u91cc\u9999
p293
I156208
sV\u56f0\u517d\u4e4b\u6597
p294
I13175
sV\u56ed\u6e38\u4f1a
p295
I30878
sV\u501f\u53e3
p296
I27706
ss.