(dp0
V\u66a7\u6627
p1
(dp2
V\u66a7\u6627
p3
I316211
ssV\u4f60\u8fc7\u5f97\u597d\u5417
p4
(dp5
V\u4f60\u8fc7\u5f97\u597d\u5417
p6
I4876
sV\u82cf\u9ece\u4e16\u7684\u4ece\u524d
p7
I4641
sV\u4e22\u624b\u7ee2
p8
I1667
sV\u670b\u53cb\u4f60\u4eec\u8fd8\u597d\u5417
p9
I1269
sV\u7eed\u96ea
p10
I4137
sV\u7231\u60c5\u5ba3\u5224
p11
I1454
sV\u4f60\u8fc7\u5f97\u597d\u5417(\u4f34\u594f)
p12
I1578
sV\u503e\u57ce
p13
I1840
sV\u7231\u7684\u671f\u9650
p14
I1260
sV\u9a6c\u620f\u5c0f\u4e11
p15
I1588
ssV\u6df1\u6df1\u7231\u8fc7\u4f60
p16
(dp17
S'Let You Go'
p18
I1543
sV\u6d41\u661f\u7684\u773c\u6cea
p19
I1318
sV\u68a6\u5f00\u59cb\u7684\u539f\u70b9
p20
I2194
sV\u7ed9\u6211\u7684\u7231\u4eba
p21
I1487
sV\u6211\u4eec\u7684\u4e16\u754c
p22
I2650
sV\u4f20\u8bf4
p23
I6525
sV\u6df1\u6df1\u7231\u8fc7\u4f60(\u4eca\u751f)
p24
I3678
sV\u6df1\u6df1\u7231\u8fc7\u4f60(\u524d\u4e16)
p25
I5151
sV\u661f\u6cb3\u4e4b\u5f79
p26
I1973
ssV\u7ec5\u58eb
p27
(dp28
V\u7ec5\u58eb
p29
I118392
sV\u4e0b\u96e8\u4e86
p30
I24173
sV\u6f14\u5458
p31
I203581
ssV\u52a8\u7269\u4e16\u754c
p32
(dp33
V\u52a8\u7269\u4e16\u754c
p34
I173834
ssV\u4e00\u534a
p35
(dp36
V\u4e00\u534a
p37
I52376
sV\u5c0f\u5b69
p38
I14161
sS'Stay Here'
p39
I5133
ssV\u672a\u5b8c\u6210\u7684\u6b4c
p40
(dp41
V\u7231\u6211\u7684\u4eba \u8c22\u8c22\u4f60
p42
I10033
sV\u9ec4\u8272\u67ab\u53f6
p43
I1365
sV\u4f20\u8bf4
p44
I1513
sV\u672a\u5b8c\u6210\u7684\u6b4c
p45
I8994
sV\u7ea2\u5c18\u5973\u5b50
p46
I1325
sV\u6211\u7684\u96c5\u5178\u5a1c
p47
I3562
sV\u7ed9\u6211\u7684\u7231\u4eba
p48
I1320
sV\u503e\u57ce
p49
I1338
sS'Memory'
p50
I1384
sV\u4f60\u8fc7\u7684\u597d\u5417
p51
I4145
sV\u8ba4\u771f\u7684\u96ea
p52
I59616
sV\u7231\u7684\u671f\u9650
p53
I1820
sV\u6211\u4eec\u7684\u4e16\u754c
p54
I1399
sV\u9a6c\u620f\u5c0f\u4e11
p55
I2171
ssV\u706b\u661f\u4eba\u6765\u8fc7
p56
(dp57
V\u706b\u661f\u4eba\u6765\u8fc7
p58
I135612
ssV\u6765\u65e5\u65b9\u957f
p59
(dp60
V\u6765\u65e5\u65b9\u957f
p61
I51879
ssV\u51e0\u4e2a\u859b\u4e4b\u8c26
p62
(dp63
V\u4e3a\u4ec0\u4e48
p64
I3870
sV\u4f0f\u7b14
p65
I5643
sV\u6577\u884d
p66
I4150
sV\u6211\u7ec8\u4e8e\u6210\u4e86\u522b\u4eba\u7684\u5973\u4eba
p67
I10282
sV\u4e3a\u4e86\u9047\u89c1\u4f60
p68
I12212
sV\u695a\u6cb3\u6c49\u754c
p69
I1673
sV\u6211\u4eec\u7231\u8fc7\u5c31\u597d
p70
I2046
sV\u6211\u77e5\u9053\u4f60\u90fd\u77e5\u9053
p71
I20588
sV\u51e0\u4e2a\u4f60
p72
I37783
ssV\u9ad8\u5c1a
p73
(dp74
V\u9ad8\u5c1a
p75
I177131
ssV\u6211\u4eec\u7231\u8fc7\u5c31\u597d
p76
(dp77
V\u6211\u4eec\u7231\u8fc7\u5c31\u597d
p78
I4450
sV\u6211\u4eec\u7231\u8fc7\u5c31\u597d (Inst.) - instrumental
p79
I1612
ssV\u521d\u5b66\u8005
p80
(dp81
V\u521a\u521a\u597d
p82
I131136
sV\u7ec5\u58eb
p83
I5480
sV\u5c0f\u5b69
p84
I3113
sV\u4e00\u534a
p85
I3862
sV\u82b1\u513f\u548c\u5c11\u5e74
p86
I25880
sV\u6211\u597d\u50cf\u5728\u54ea\u89c1\u8fc7\u4f60
p87
I162765
sV\u521d\u5b66\u8005
p88
I180543
sS'Stay Here'
p89
I6365
sV\u6f14\u5458
p90
I6174
sV\u4e0b\u96e8\u4e86
p91
I6339
ssV\u6211\u5bb3\u6015
p92
(dp93
V\u6211\u5bb3\u6015
p94
I174245
ssV\u610f\u5916
p95
(dp96
V\u4e11\u516b\u602a
p97
I60866
sV\u6709\u6ca1\u6709
p98
I23703
sV\u4f60\u8fd8\u8981\u6211\u600e\u6837
p99
I138526
sV\u6f6e\u6d41\u5b63
p100
I5530
sV\u6211\u60f3\u8d77\u4f60\u4e86
p101
I9209
sV\u7b49\u6211\u56de\u5bb6
p102
I28953
sV\u610f\u5916
p103
I53062
sV\u65b9\u5706\u51e0\u91cc (\u5409\u4ed6\u7248)
p104
I5260
sV\u65b9\u5706\u51e0\u91cc
p105
I51950
sV\u5176\u5b9e
p106
I57992
ssV\u859b\u4e4b\u8c26
p107
(dp108
V\u9ec4\u8272\u67ab\u53f6
p109
I5157
sV\u738b\u5b50\u5f52\u6765
p110
I3252
sV\u7231\u4e0d\u8d70
p111
I1537
sV\u6211\u7684Show
p112
I3719
sV\u7ea2\u5c18\u5973\u5b50
p113
I1706
sV\u9497\u5934\u51e4
p114
I4420
sV\u6211\u7684Show(\u4f34\u594f)
p115
I1729
sS'Memory'
p116
I2877
sV\u8ba4\u771f\u7684\u96ea
p117
I4736
sV\u5feb\u4e50\u5e2e
p118
I1476
ssV\u65b9\u5706\u51e0\u91cc
p119
(dp120
V\u65b9\u5706\u51e0\u91cc (\u5409\u4ed6\u7248)
p121
I1346
sV\u65b9\u5706\u51e0\u91cc
p122
I3322
ss.