(dp0
S'Beethoven Virus'
p1
(dp2
VRainy Day
p3
I871
sVBeethoven Virus
p4
I35047
sVThe Days Of Wine And Roses
p5
I101
sVOriental Blue
p6
I164
sVPurple Passion (Club Mix) - remix
p7
I661
sVDrama
p8
I2374
sVFaraway
p9
I1282
sVPurple Passion
p10
I59935
sVMy Funny Valentine
p11
I173
sVSnow Hill
p12
I369
sVGuys
p13
I787
sVSad Memory
p14
I332
ss.