(dp0
S'La Voix Des Anges'
p1
(dp2
VLiberatiion
p3
I3212
sVThe Sound Of Silence
p4
I1489
sVGreensleeves
p5
I121
sVConcerto Pour Une Voix
p6
I123
sVLnch'Allah
p7
I428
sVRenaissance
p8
I127
sVExil
p9
I167
sVRomance
p10
I401
sVAngels of The Night
p11
I276
sVMarble Halls
p12
I88
sVRomeo and Juliette
p13
I169
sVDominica
p14
I200
ss.