(dp0
S'25 miles to kissimmee'
p1
(dp2
Vcloser
p3
I25
sVi won`t kill myself
p4
I25
sVglory
p5
I19
sVcloser (2001 version)
p6
I2
sVreason
p7
I47
sVbighouse pyromaniac
p8
I93
sV25 miles to kissimmee
p9
I15
sVdreaming (2003)
p10
I8
sVmaterial world
p11
I14
sVtears run dry
p12
I40
sVismael
p13
I13
sVrolling home
p14
I11
sVsilence
p15
I130
sVbighouse (reprise)
p16
I19
ssS'Pieces'
p17
(dp18
VLemon Tree (Live at Villa Berg, Stuttgart 22.02.96)
p19
I420
sVPieces
p20
I27
ss.