(dp0
S'Lumina'
p1
(dp2
VBinary Birth
p3
I4
sVLumina
p4
I2
sVInevitability
p5
I3
sVAbsolute Truth
p6
I3
sVRedeemed
p7
I6
sVThere's Hope
p8
I4
sVStarlight Rider
p9
I3
sVCreators Of The Universe
p10
I3
sVPushing Through
p11
I2
sVTranscending Time
p12
I6
sVPath To Greatness
p13
I5
sVMoment Of Inertia
p14
I3
sVThe Flame
p15
I3
sVEntropy
p16
I6
sVVoyage To Mars
p17
I9
sVWhat Have We Become
p18
I3
sVMagic Blood
p19
I3
ssS'The Demon Within'
p20
(dp21
VIn League With Cerberus
p22
I1
sVDead Ringer
p23
I1
sVDeath Box
p24
I1
sVShadow Killer
p25
I3
sVTormentor
p26
I4
sVProphets Of Doom
p27
I1
sVSensing Human Prey
p28
I2
sVThe Demon Code
p29
I3
sVCurse Of The Oracle
p30
I1
sVInfernalis
p31
I2
sVPossessed
p32
I1
sVFind Your Way Out
p33
I1
sVUnholy In Thee
p34
I1
sVSlash And Burn
p35
I1
sVWitch Hunt
p36
I2
sVThe Gathering
p37
I1
sVCountdown To Oblivion
p38
I1
sVFatal Vision
p39
I4
sVWhy Is This Happening
p40
I1
sVIncubus
p41
I1
sVFear
p42
I1
sVThe World We Have Left
p43
I1
ssS'Trailerhead: Triumph'
p44
(dp45
VOde to Power
p46
I24
sVDestiny of the Chosen
p47
I1130
sVPandora's Heaven
p48
I17
sVSalveus (Moniker Remix)
p49
I10
sVBurden of Atlas
p50
I101
sVExcalibur
p51
I57
sVAgeless Empires
p52
I15
sVFalling Skies
p53
I103
sVBattle for the Soul of the Universe
p54
I29
sVIncensus
p55
I6
sVBarbarians (Moniker Remix)
p56
I48
sVNovus Arcana
p57
I17
sVMercurial
p58
I107
sVHow to Control the Dream
p59
I266
sVState of Endless Grace
p60
I12
sVTales of the Electric Romeo
p61
I26250
sVRex Imperium
p62
I27
sVTears of Blood
p63
I26
sVA Nation Born
p64
I12
sVSanctus Immortale
p65
I25
sVJourney to Glory
p66
I36
sVRex Imperium Reprise
p67
I12
sVThe Lords Shall Rule
p68
I13
ssS'Epic Choral Trailer'
p69
(dp70
VInto The Eternal Twilight (No Choir)
p71
I2
sVThe Brink Of War (No Choir) (30)
p72
I1
sVDefamation
p73
I1
sVThe Brink Of War (30)
p74
I3
sVConquest Of Kingdoms (No Choir)
p75
I1
sVKill The Machines (Orchestra And Choir Only) (30)
p76
I1
sVRa
p77
I7
sVInto The Eternal Twilight (Orchestra And Choir Only)
p78
I1
sVRa (30)
p79
I1
sVGrail Seeker (30)
p80
I1
sVRisk It All (Orchestra And Choir Only)
p81
I1
sVThe Summoning Of Heroes (Orchestra And Choir Only)
p82
I1
sVAge Of Empires (No Choir)
p83
I2
sVHyperdrive (30)
p84
I1
sVRise Of Colossuss (Orchestra And Choir Only)
p85
I1
sVThe Mother Of All Battles (30)
p86
I3
sVRise Of Colossus
p87
I1
sVThe Summoning Of Heroes (No Choir)
p88
I8
sVO Destina (No Choir) (30)
p89
I1
sVKill The Machines (No Choir)
p90
I1
sVThe Brink Of War (No Choir)
p91
I1
sVProphets Of Doom (No Choir) (30)
p92
I1
sVSemper Fide (Orchestra And Choir Only)
p93
I1
sVHope Of A Nation (No Choir)
p94
I1
sVAge Of Empires
p95
I6
sVThe Demon Code
p96
I2
sVAssembly Of Messengers
p97
I2
sVKill The Machines
p98
I5
sVRise Of Colossus (No Choir)
p99
I1
sVBuckle Up (No Choir)
p100
I1
sVFinal Reckoning (30)
p101
I4
sVFinal Reckoning
p102
I2
sVThe War Continues (No Choir)
p103
I1
sVThe Mother Of All Battles (Remix)
p104
I2
sVThe Summoning Of Heroes
p105
I5
sVO Destina (30)
p106
I1
sVAssembly Of Messengers (30)
p107
I1
sVKill The Machines (Orchestra And Choir Only)
p108
I1
sVGrail Seeker (No Choir)
p109
I1
sVGrail Seeker
p110
I1
sVAssembly Of Messengers (No Choir) (30)
p111
I1
sVFirebender (30)
p112
I1
sVThe Mother Of All Battles (No Choir)
p113
I2
sVRisk It All (30)
p114
I1
sVAssembly Of Messengers (Orchestra And Choir Only)
p115
I1
sVThe Summoning Of Heroes (30)
p116
I1
sVRa (No Choir)
p117
I2
sVHyperdrive (No Choir)
p118
I3
sVAge Of Empires (No Choir) (30)
p119
I1
sVA Legend Is Born (30)
p120
I1
sVHyperdrive (Orchestra And Choir Only)
p121
I1
sVThe War Continues (No Choir) (30)
p122
I1
sVThe Conquered Shall Prevail (30)
p123
I1
sVThe Conquered Shall Prevail (No Choir)
p124
I2
sVThe End Of Days (30)
p125
I1
sVKill The Machines (No Choir) (30)
p126
I1
sVProphets Of Doom (No Choir)
p127
I1
sVGrail Seeker (No Choir) (30)
p128
I1
sVThe Demon Code (No Choir)
p129
I1
sVFirebender (Orchestra And Choir Only)
p130
I1
sVConquest Of Kingdoms (Orchestra And Choir Only)
p131
I2
sVA Legend Is Born (No Choir)
p132
I1
sVDefamation (No Choir)
p133
I1
sVThe Demon Code (Orchestra And Choir Only)
p134
I1
sVDefamation (Orchestra And Choir Only)
p135
I1
sVRisk It All (No Choir)
p136
I1
sVSemper Fide (No Choir)
p137
I1
sVA Legend Is Born (Orchestra And Choir Only)
p138
I1
sVInto The Eternal Twilight
p139
I39
sVO Destina (No Choir)
p140
I9
sVRisk It All
p141
I1
sVInto The Eternal Twilight (No Choir) (30)
p142
I1
sVThe Summoning Of Heroes (No Choir) (30)
p143
I1
sVAssembly Of Messengers (No Choir)
p144
I1
sVThe Demon Code (No Choir) (30)
p145
I1
sVA Legend Is Born (No Choir) (30)
p146
I1
sVThe Conquered Shall Prevail
p147
I9
sVThe Demon Code (30)
p148
I1
sVFinal Reckoning (Orchestra And Choir Only)
p149
I1
sVDefamation (No Choir) (30)
p150
I1
sVAge Of Empires (Orchestra And Choir Only)
p151
I1
sVThe War Continues
p152
I1
sVConquest Of Kingdoms
p153
I6
sVConquest Of Kingdoms (30)
p154
I1
sVHope Of A Nation (30)
p155
I1
sVHope Of A Nation
p156
I1
sVFirebender (No Choir) (30)
p157
I1
sVFirebender (No Choir)
p158
I1
sVHyperdrive (No Choir) (30)
p159
I1
sVThe End Of Days (No Choir) (30)
p160
I1
sVBuckle Up (No Choir) (30)
p161
I1
sVThe Mother Of All Battles (No Choir) (30)
p162
I1
sVThe Conquered Shall Prevail (No Choir) (30)
p163
I1
sVProphets Of Doom
p164
I1
sVBuckle Up (30)
p165
I1
sVFirebender
p166
I4
sVConquest Of Kingdoms (No Choir) (30)
p167
I1
sVFinal Reckoning (No Choir)
p168
I2
sVBuckle Up
p169
I1
sVDefamation (30)
p170
I1
sVInto The Eternal Twilight (30)
p171
I1
sVSemper Fide (30)
p172
I1
sVThe Brink Of War (Orchestra And Choir Only)
p173
I1
sVProphets Of Doom (Orchestra And Choir Only)
p174
I1
sVThe Mother Of All Battles
p175
I16
sVThe End Of Days (No Choir)
p176
I4
sVSemper Fide (No Choir) (30)
p177
I1
sVRise Of Colossus (No Choir) (30)
p178
I1
sVThe End Of Days
p179
I5
sVThe War Continues (Orchestra And Choir Only)
p180
I1
sVFinal Reckoning (No Choir) (30)
p181
I1
sVHyperdrive
p182
I1
sVA Legend Is Born
p183
I2
sVSemper Fide
p184
I5
sVThe End Of Days (Orchestra And Choir Only)
p185
I1
sVRise Of Colossus (30)
p186
I1
sVProphets Of Doom (30)
p187
I1
sVThe War Continues (30)
p188
I1
sVHope Of A Nation (No Choir) (30)
p189
I1
sVRisk It All (No Choir) (30)
p190
I1
sVO Destina
p191
I23
sVThe Brink Of War
p192
I2
sVThe Mother Of All Battles (Orchestra And Choir Only)
p193
I1
sVAge Of Empires (30)
p194
I1
sVRa (No Choir) (30)
p195
I1
ssS'Orchestral soundtrack'
p196
(dp197
VThe Theory Of Light
p198
I7
sVThe Contentious Throne
p199
I1
sVThe Sacred Hunt
p200
I5
sVBeauty Of The Fall
p201
I6
sVTime And Tide
p202
I55
sVThe Sacred Hunt_NC
p203
I2
sVThe Quest For Glory NC
p204
I1
sVEnigma NC
p205
I2
sVWe Will Rise
p206
I5
sVEnigma
p207
I1
sVThe Discovery
p208
I1
sVPrayer For The Victims
p209
I1
sVPanda Heaven
p210
I7
sVThe Quest For Glory
p211
I12
sVOne Ring To Bind Us All
p212
I3
sVThe Harsh Winter
p213
I3
sVThe Dark Queen
p214
I2
sVAshes At Dawn
p215
I6
sVLegacy Of Hope
p216
I20
sVNeither God Nor Man
p217
I2
sVA Journey Awaits
p218
I3
sVWho Will Stand By Me
p219
I5
sVTrail Of Tears
p220
I2
sVNo Way Out
p221
I1
sVI Will Remember You
p222
I2
sVWandering Hearts
p223
I5
sVMorning In The Shire
p224
I1
sVAshes At Dawn_NC
p225
I2
sVThe Harsh Winter NC
p226
I3
sVBroken Wings
p227
I1
ssS'Trailer Hits'
p228
(dp229
VSurvive the Game
p230
I39
sVControl the Dream (Deception Mix)
p231
I30
sVThe Desperados
p232
I10
sVPathogen
p233
I12
sVTime to Die
p234
I45
sVWhere We Met
p235
I72
sVTo Rise Above
p236
I14
sVScarlet Fury
p237
I12
sVLand of Fire
p238
I19
sVFuse
p239
I11
sVThe Twelve Titans
p240
I13
sVFury Unleashed
p241
I19
sVThe Summoning of Heroes
p242
I12
sVWe Made This War
p243
I41
sVApocalypse
p244
I144
sVEleventh Hour
p245
I8
sVOvercome Anything
p246
I27
sVPerson of Interest
p247
I99
sVPants on Fire
p248
I14
sVThousand Light years
p249
I20
sVLegends of the Brave
p250
I31
sVThe Explorers Ride Again
p251
I20
ssS'Trailerhead'
p252
(dp253
VAge of Discovery
p254
I117
sVPrometheus Rising
p255
I1875
sVSpiritus Omnia
p256
I283
sVThe Reluctant Warrior
p257
I645
sVAn Epic Age
p258
I419
sVImperitum Immediate
p259
I1796
sVTrial of the Archangel
p260
I13
sVEmpyrean Mercenaries
p261
I24
sVFides en lucius dei
p262
I12
sVSerenata Immortale
p263
I9191
sVShield of Faith
p264
I64
sVPrelude to Paradise
p265
I114
sVLacrimosa Dominae
p266
I167
sVOnward to Freedom
p267
I37
sVGenerations
p268
I23
ssS'Trailerhead:Saga'
p269
(dp270
VOratio Sanctus
p271
I21
sVIn League With Cerberus
p272
I18
sVDarkness On the Edge of Power (Live) - live
p273
I13
sVAshes of War
p274
I20
sVInvictus
p275
I1318
sVFatum Plebis
p276
I1273
sVHymnus Orbis
p277
I14
sVEmergence of Empire
p278
I11
sVGlory Seeker
p279
I883
sVSalvation for a Proud Nation
p280
I60
sVDarkness On the Edge of Power
p281
I150
sVLibertas
p282
I21
sVWorld On a String
p283
I258
sVSurrender To Hope
p284
I132
ssS'Broken Dreams'
p285
(dp286
VCan't Go Back
p287
I1
sVBad Timing
p288
I1
sVShadow Waltz
p289
I6
sVThe Break Up
p290
I1
sVBurden Of Dreams
p291
I1
sVWar's Adagio
p292
I1
sVMystic Signs
p293
I2
sVWhere Did It All Go
p294
I5
sVNo Road Home
p295
I1
sVFading Light
p296
I3
sVRemorse
p297
I1
sVBella Vie
p298
I46
sVIn Silence
p299
I1
sVAffliction
p300
I1
sVAtonement
p301
I55
sVTurning Inwards
p302
I1
sVLost Hop
p303
I2
sVLast Dream
p304
I3
sVVision
p305
I2
sVAtonement alt
p306
I2
ssS'Cyberian'
p307
(dp308
VHero Within
p309
I19
sVThe League
p310
I20
sVTremors
p311
I16
sVGasoline Blood
p312
I21
sVHard Edge
p313
I16
sVNew World Order
p314
I21
sVDark Dimensions
p315
I13
sVSavior
p316
I17
sVReloader
p317
I30
sVCrush Crush
p318
I147
sVYou Will Bleed
p319
I66
sVMr Wick
p320
I27
sVFinal Punishment
p321
I21
ssS'Epic Olympic Dreams'
p322
(dp323
VOn The Eve Of The Games
p324
I6
sVQuest For Gold
p325
I2
sVHeroes Crusade
p326
I12
sVPride On The Platform
p327
I3
sVLet The Games Begin
p328
I9
sVVictory For The Hometown Hero
p329
I3
sVDreams Of My Country
p330
I4
sVThe Brave And The Proud
p331
I3
sVEchoes Of Greatness
p332
I3
sVSalvation For A Proud Nation
p333
I6
sVVoyage To The Games
p334
I6
sVFor Honor, For Glory, Forever
p335
I4
sVLegacy Of Champions
p336
I3
sVSpirit Of The Ancients
p337
I2
sVWorld On A String
p338
I3
sVOnward To Freedom
p339
I3
sVSurrender To Hope
p340
I13
sVUnion Of Warriors
p341
I2
sVGlorious Victories
p342
I6
sVTriumphant Ceremony
p343
I5
ssS'Horror/Sci-Fi #1'
p344
(dp345
VHades Gate
p346
I0
sVRedrum 2.0
p347
I1
sVDead Ringer
p348
I1
sVNexus 5
p349
I2
sVFace in the Mirror
p350
I1
sVBelow Deck
p351
I5
sVFinal Omen
p352
I3
sVAlien Atmosfear
p353
I3
sVWasteland
p354
I0
sVFinal Countdown
p355
I0
sVRipley's Dream
p356
I0
sVSubterfuge 1
p357
I3
sVSubterfuge 2
p358
I2
sVRedrum
p359
I3
sVThe Undead
p360
I1
sVMachines Shall Rise
p361
I4
sVIt's not Human
p362
I1
sVOut of Body
p363
I0
sVGraven Image
p364
I1
sVDevil's Hand
p365
I1
sVDies Irae
p366
I2
sVAftermath
p367
I3
sVThey Breed
p368
I0
sVDark Prince
p369
I1
sVThe Nest
p370
I0
sVLabyrinth
p371
I1
sVVlad's Vision
p372
I0
sVDouble Panic
p373
I1
sVSleepwalk
p374
I1
sVLake of Fire #2
p375
I0
sVTightwire Orchestral
p376
I4
sVLake of Fire #1
p377
I1
sVLiving in Fear
p378
I0
sVBetrayal Voices
p379
I1450
sVNostromus
p380
I0
sVProgrammed for Destruction
p381
I0
sVSpiritus Sancte
p382
I2
sVAlien Crawlspace
p383
I3
sVHell's Patient Fury
p384
I2
sVTerminated Alien
p385
I0
sVSerpent's Teeth
p386
I0
sVIn The Ducts
p387
I0
sVBlasphemy
p388
I10
sVRaised from the Dead
p389
I1
sVNightweats
p390
I1
sVProbe
p391
I0
sVFatal Vision
p392
I19
sVThe Hidden
p393
I3
sVInto the Light
p394
I11
sVCold Space
p395
I1
sVWatch Over Me
p396
I13
sVThe Day We Fight Back
p397
I1
sVIncubus
p398
I0
sVZero Gravity
p399
I0
sVWe're Not Alone
p400
I1
ssS'Action & Drama #2'
p401
(dp402
VSomething's Out There
p403
I3
sVShowdown
p404
I1
sVVirtual Zone
p405
I1
sVThe Mole
p406
I1
sVRumble City
p407
I1
sVRevenge
p408
I1
sVTightwire
p409
I1
sVPassion
p410
I1
sVZero Hour
p411
I1
sVTrial By Fire
p412
I1
sVRed Wire Blue Wire
p413
I1
sVMaximum Impact
p414
I2
sVNaked Force
p415
I1
sVSurrender, Hell No!
p416
I1
sVRedrum
p417
I247
sVSiege
p418
I2
sVWatch The Birdy
p419
I1
sVOne Man's Courage
p420
I400
sVStrike Force (30)
p421
I1
sVWar Machine
p422
I1
sVStrike Force
p423
I1
sVWar Machine (30)
p424
I4
sVOne Man's Courage (no melody)
p425
I7
sVTightwire Orchestral
p426
I1
sVXingu Vision
p427
I1
sVRedrum (30)
p428
I3
sVZero Hour (30)
p429
I1
sVPressure Point
p430
I1
sVSpeed This
p431
I1
sVTerminated Alien
p432
I1
sVPrince of Darkness
p433
I1
sVPoison Kiss
p434
I3
sVSerpent's Teeth
p435
I1
sVReplikant
p436
I2
sVRed Wire Blue Wire (Edit)
p437
I1
sVPrimal
p438
I1
sVThe Next to Die
p439
I1
sVNo Guts, No Glory
p440
I1
sVRedrum (no vox)
p441
I2
sVNo Guts, No Glory (30)
p442
I1
sVSubspecies
p443
I1
sVNaked Prey
p444
I2
ssS'Action & Drama #1'
p445
(dp446
VIced
p447
I1
sVBurning
p448
I1
sVDangerous Ground
p449
I1
sVBrimstone
p450
I1
sVBreakout
p451
I1
sVDesperate Hour
p452
I2
sVThe Last Witness
p453
I1
sVBring 'Em In Alive (Faster)
p454
I1
sVCold Sweat 2
p455
I1
sVBring 'Em In Alive
p456
I1
sVThe Hunted
p457
I1
sVFatal Flaw
p458
I1
sVBringer Of War
p459
I1
sVFull Throttle
p460
I1
sVExecutive Order
p461
I1
sVAssault
p462
I6
sVCold Sweat 1
p463
I1
sVConcrete Jungle
p464
I1
sVAftermath
p465
I3
sVLet It Burn
p466
I77
sVHigh Octane
p467
I3
sVThe Devil's Hand
p468
I1
sVLive & Die
p469
I1
sVIs It Safe
p470
I1
sVChain Of Command
p471
I1
sVCode Red
p472
I5
sVHunt of the Hurons
p473
I5
sVDetonate
p474
I1
sVDark Rain 1
p475
I1
sVDark Rain 2
p476
I2
sVIn Conspiracy
p477
I1
sVThe Fanatic
p478
I1
sVIntercept
p479
I1
sVBlasphemy
p480
I1
sVLiving In Fear
p481
I1
sVThe Heat
p482
I1
sVDeath March
p483
I1
sVThe Day We Fight Back
p484
I1
sVEscape
p485
I4
ssS'Futbol Is Epic!'
p486
(dp487
V!Hala Madrid! (Himno Del Centenario)
p488
I59
sVCant Del Barc\u0327a
p489
I9
sVSterne Des Su\u0308dens
p490
I6
sVStoria Di Un Grande Amore
p491
I19
sVGlu\u0308ck Auf Der Steiger Kommt
p492
I3
sVGlory Glory Man United
p493
I65
sVAllez Paris Saint-Germain
p494
I75
sVYou'll Never Walk Alone
p495
I5
sVHymne Olympique Lyonnais
p496
I6
sVBlue Is The Colour
p497
I33
sVVechernyaya Pesnya (Zenit)
p498
I8
sVMilan, Milan!
p499
I124
sVTek Bu\u0308yu\u0308k Galatasaray
p500
I4
sVLeuchte Auf Mein Stern Borussia
p501
I11
sVArsenal We're On You're Side
p502
I5
ssS'Action & Drama #4'
p503
(dp504
VRedrum 2.0
p505
I1
sVSecurity Breach
p506
I1
sVPropulsion
p507
I1
sVWired! 30
p508
I1
sVWarhead
p509
I1
sVMother Rise
p510
I1
sVManhunt
p511
I1
sVOutta Here!
p512
I1
sVHostage Crisis
p513
I3
sVOrch Rise #2
p514
I1
sVOrch Rise #3
p515
I1
sVOrch Rise #1
p516
I1
sVRenegades
p517
I1
sVInsurrection
p518
I1
sVThis Season's Thrill Ride
p519
I1
sVSorcery
p520
I1
sVRelentless
p521
I1
sVRequiem Rave
p522
I10
sVOverdrive
p523
I1
sVSearch And Rescue
p524
I1
sVSon Of Naked Prey
p525
I1
sVSemi-Automatic
p526
I1
sVUnleash Hell
p527
I1
sVLock And Load
p528
I1
sVWhite Heat
p529
I1
sVDead Rise
p530
I2
sVShockwave
p531
I3
sVWolf
p532
I1
sVSlamming Credits
p533
I1
sVVelocity
p534
I1
sVSpecial Forces
p535
I1
sVHostage Crisis 30
p536
I2
sVDay in the Rise
p537
I1
sVTomb Riser
p538
I1
sVTurf War
p539
I1
sVKiss or Kill
p540
I2
sVInfiltraitor
p541
I8
sVTunnel Vision End Rise
p542
I2
sVWired!
p543
I1
sVStalking Prey 30
p544
I1
sVNo Prisoners
p545
I1
sVReplikant 2.0
p546
I1
sVPull The Plug!
p547
I1
ssS'Epic #3'
p548
(dp549
VProfile in Courage
p550
I7
sVTrilogy
p551
I5
sVSalute to Victory
p552
I1
sVThe New Republic
p553
I2
sVUncommon Hero, An
p554
I4
sVPromise to Return, a
p555
I4
sVHeart of a Dragon
p556
I6
sVSpiritus Sancte
p557
I1
sVLand Of Freedom
p558
I1
sVWyatt's Torch
p559
I42
sVThey Took his Family...
p560
I59
sVReason to Believe, A
p561
I2
sVHeartland
p562
I8
sVI'll Come Back for You
p563
I3
sVUnion!
p564
I2
sVThousand Lanterns, A
p565
I13
sVI'll Come Back for You (edit)
p566
I1
sVThe Journey Home
p567
I7
sVSolemn Vows
p568
I5
sVUncommon Hero, An (30)
p569
I2
sVNo Greater Love
p570
I3
sVMartyr
p571
I3
sVPaths of Glory
p572
I3
sVRaising the Flag
p573
I2
sVSaint of the Streets v.2
p574
I1
sVMission of Glory
p575
I3
sVHome Again
p576
I14
sVUnholy Alliance
p577
I3
ssS'Epic #2'
p578
(dp579
VThe Glory Days
p580
I7
sVThe Courage To Believe
p581
I9
sVThe Stateman
p582
I18
sVThe End of Innocence
p583
I4
sVEyes of a Nation (60)
p584
I2
sVDay of Infamy
p585
I5
sVA Call To Arms
p586
I12
sVBorder Crossing
p587
I2
sVFrom the Ashes
p588
I4
sVEpilogue
p589
I3
sVBrothers in Arms
p590
I3
sVEyes of a Nation
p591
I6
sVDo You Believe...
p592
I39
sVThe Awakening
p593
I5
sVChoral Fantasy
p594
I4
sVDare To Dream (Alternate Ending)
p595
I5
sVThe Best Years
p596
I4
sVBring the Boys Back Home
p597
I2
sVCourage, Honor, Country
p598
I4
sVWhere Dreams Are Made
p599
I5
sVThe Cost of Courage
p600
I3
sVStorming the Gates
p601
I1
sVA Family Honor
p602
I3
sVThe Courage To Believe (edit)
p603
I2
sVAscension
p604
I2
ssS'Epic #1'
p605
(dp606
VForgotten Dreams
p607
I7
sVFeel the Magic
p608
I56
sVThe Waltz
p609
I6
sVUnrequited Love
p610
I3
sVAcross the Bridge
p611
I3
sVFire in Paradise
p612
I3
sVPlateau
p613
I1
sVDare to Dream
p614
I17
sVFor Which We Stand
p615
I6
sVShadows of Angels
p616
I1
sVSwept Away
p617
I1
sVFor Honor & Glory
p618
I3
sVFor Which We Stand (60)
p619
I37
sVOne Man's Courage
p620
I312
sVFall of a Legend
p621
I68
sVA Once Proud People (edit)
p622
I2
sVThose We Left Behind
p623
I2
sVThe American Dream
p624
I13
sVWolf Moon Powwow
p625
I1
sVSaint of the Streets
p626
I1
sVShield & Sword
p627
I1
sVThe New Land
p628
I5
sVHunt of the Hurons
p629
I14
sVCome See Come Saw
p630
I19
sVFeel the Magic 30
p631
I2
sVRhapsody
p632
I17
sVHomecoming
p633
I12
sVNew Day
p634
I1
sVWe Die as Free Men
p635
I1
sVLast Ride
p636
I2
sVBox of Chocolates
p637
I27
sVOf Men & Legends
p638
I4
sVTurning Home
p639
I1
sVTeamsters Salute
p640
I1
sVLegacy
p641
I6
sVWar Torn
p642
I1
sVPrayer
p643
I2
sVA Once Proud People
p644
I6
sVGood to be Alive
p645
I2
sVHunt for a Huron King
p646
I5
ssS'Swords & Thrones'
p647
(dp648
VEntering the Stronghold
p649
I45
sVOverlord
p650
I193
sVUnified Front
p651
I22
sVQueen of the Realm
p652
I48
sVArmy of the Damned
p653
I38
sVOur Final Stand
p654
I20
sVReign in Blood
p655
I44
sVIn War We Trust
p656
I23
sVContest for the Crown
p657
I16
sVBrigade of Heroes
p658
I17
sVFace Your Enemy
p659
I24
sVAngels of Apocalypse
p660
I61
sVLegions of the Brave
p661
I18
sVGames of Intrigue
p662
I37
sVNoble Riders
p663
I171
sVPride in Victory
p664
I73
ssS'Trailer Beast - Heroes, Legends And Ogre...'
p665
(dp666
VMagical Inventions
p667
I1
sVLand Of Wonder (No Choir)
p668
I0
sVOperation Rescue (No Choir)
p669
I1
sVPandora (Version 2)
p670
I3
sVThe Knights Templar
p671
I3
sVWings Of Victory (No Choir)
p672
I1
sVKingdom Of Glory (No Choir)
p673
I1
sVBelieve The Magic
p674
I8
sVI've Created A Monster
p675
I1
sVCall In The B Team
p676
I1
sVAlmighty
p677
I3
sVOperation Rescue
p678
I1
sVFor King And Country
p679
I1
sVI've Created A Monster (No Choir)
p680
I1
sVBelieve The Magic (No Choir)
p681
I0
sVGlorious Return
p682
I11
sVThe Warlocks Apprentice
p683
I3
sVAtlas
p684
I10
sVCrowning Victory
p685
I1
sVTreasure Chase
p686
I1
sVThe Knights Templar (No Choir)
p687
I2
sVCurse Of The Oracle (No Choir)
p688
I1
sVFantasy Kingdom
p689
I3
sVThe Hometown Hero (No Choir)
p690
I1
sVBattle Of Megiddo (No Choir)
p691
I1
sVBrave New Worlds
p692
I4
sVMaster Of The Vortex
p693
I1
sVUnlock The Secret
p694
I1
sVLand Of Wonder
p695
I1
sVBattle Of Megiddo
p696
I2
sVThe Golden Voyage (30s)
p697
I2
sVSoothslayer (No Choir)
p698
I2
sVAlmighty (No Choir)
p699
I2
sVMaster Of The Vortex (No Choir)
p700
I1
sVCall In The B Team (No Choir)
p701
I1
sVThe Golden Voyage (No Choir)
p702
I1
sVThe Ultimate Adventure (No Choir)
p703
I1
sVThe Hometwon Hero
p704
I1
sVThe Warlocks Apprentice (No Choir)
p705
I6
sVFantasy Kingdom (No Choir)
p706
I1
sVPandora (Version 2, No Choir)
p707
I1
sVPandora (Version 1, No Choir)
p708
I4
sVBrave New Worlds (No Choir)
p709
I0
sVFor The Fallen
p710
I2
sVLords Of The Realm
p711
I15
sVPossessed
p712
I1
sVGlorious Return (No Choir)
p713
I1
sVMagical Inventions (No Choir)
p714
I2
sVIron Warrior (No Choir)
p715
I6
sVCrowning Victory (No Choir)
p716
I0
sVPandora (Version 1)
p717
I5
sVUnlock The Secret (No Choir)
p718
I2
sVKingdom Of Glory
p719
I1
sVEscape From The Wizard
p720
I3
sVFor King And Country (No Choir)
p721
I1
sVGone Soaring (No Choir)
p722
I1
sVIron Warrior
p723
I4
sVTo A Faraway Land
p724
I1
sVThe Ultimate Adventure
p725
I9
sVLike Lambs To Slaughter (No Choir)
p726
I1
sVDown The Rabbit Hole
p727
I2
sVSoothslayer
p728
I1
sVCurse Of The Oracle
p729
I1
sVDown The Rabbit Hole (No Choir)
p730
I0
sVRunning From Dinosaurs
p731
I1
sVThe Golden Voyage
p732
I4
sVEtherea
p733
I3
sVLike Lambs To Slaughter
p734
I1
sVPossessed (No Choir)
p735
I2
sVAtlas (No Choir)
p736
I2
sVGone Soaring
p737
I1
sVLords Of The Realm (No Choir)
p738
I4
sVWings Of Victory
p739
I1
ssS'Themes for Orchestra and Choir 1'
p740
(dp741
VHymn
p742
I4
sVOrch & Choir Rise 5
p743
I1
sVOrch & Choir Rise 4
p744
I1
sVOrch & Choir Rise 3
p745
I1
sVOrch & Choir Rise 2
p746
I1
sVOrch & Choir Rise 1
p747
I1
sVArchangel
p748
I4
sVOrch Descent 1
p749
I26
sVHidden Fortress(No Choir)
p750
I2
sVRedrum 3(No Choir)
p751
I2
sVThe Gathering(No Choir)
p752
I0
sVKing For A Day
p753
I1
sVGrand Inquisition
p754
I1
sVUltimatum
p755
I21
sVReturn To Willowbrook
p756
I7
sVBlasphemy 2.0
p757
I5
sVFinal Omen 2.0(No Choir)
p758
I3
sVHidden Fortress
p759
I4
sVThe Black Legend
p760
I247
sVFahrenheit
p761
I52
sVSerenata(No Choir)
p762
I147
sVAll Hell Breaks Loose(No Choir)
p763
I1
sVLacrimosa
p764
I327
sVVoyager
p765
I2
sVSpiritus Elektros
p766
I133
sVHoly
p767
I8
sVLove And War
p768
I7
sVThe Magician's Apprentice
p769
I2
sVCoronation(No Choir)
p770
I2
sVLove And War(No Choir)
p771
I1
sVBirth Of A Nation(No Choir)
p772
I1
sVBirth Of A Nation
p773
I17
sVJudgement Day
p774
I2
sVRedrum 3
p775
I11
sVLeague Of Justice(No Choir)
p776
I1
sVMonolith
p777
I2
sVWorlds Apart
p778
I20
sVOrch 100 Rise 4
p779
I1
sVOrch 100 Rise 1
p780
I1
sVOrch 100 Rise 3
p781
I1
sVOrch 100 Rise 2
p782
I1
sVAvenger(No Choir)
p783
I413
sVImperativa
p784
I121
sVArchangel(No Choir)
p785
I2
sVSalvation
p786
I8
sVOff To Neverland
p787
I1
sVSpirit Of Adventure
p788
I1
sVAvenger
p789
I31
sVThe Gathering
p790
I2
sVAll Hell Breaks Loose
p791
I3
sVFahrenheit(No Choir)
p792
I4
sVThe Promised Land
p793
I5
sVLiberty Shield
p794
I31
sVSerenata
p795
I44
sVSixty Voices Rise 4
p796
I18
sVSixty Voices Rise 2
p797
I1
sVSixty Voices Rise 3
p798
I13
sVSixty Voices Rise 1
p799
I1
sVEuphrates
p800
I8
sVCrusade
p801
I59
sVProud Nation
p802
I15
sVBlasphemy 2.0(No Choir)
p803
I1
sVThe Black Legend(No Choir)
p804
I1
sVHoly(No Choir)
p805
I2
sVOrch & Choir Descent 1
p806
I14
sVThe Quest(No Choir)
p807
I2
sVLacrimosa(No Choir)
p808
I31
sVThe Quest
p809
I1
sVRedemption
p810
I2
sVLeague Of Justice
p811
I2
sVRedemption(No Choir)
p812
I1
sVVoyager(No Choir)
p813
I1
sVUltimatum(No Choir)
p814
I2
sVLiberation!
p815
I4
sVPrelude
p816
I10
sVKing For A Day(No Choir)
p817
I1
sVPrelude(No Choir)
p818
I3
sVWitch Hunt
p819
I1
sVImperativa(No Choir)
p820
I175
sVCrusade(No Choir)
p821
I10
sVFinal Omen 2.0
p822
I9
sVCoronation
p823
I5
sVMercutio
p824
I61
sVEuphrates(No Choir)
p825
I2
sVHymn(No Choir)
p826
I1
sVLiberation!(No Choir)
p827
I3
ssS'Themes for Orchestra and Choir 3'
p828
(dp829
VThe Way the Cookie Crumbles (NC)
p830
I1
sVDark Side Of Power
p831
I6482
sVMystery of the Ages (NC)
p832
I1
sVMoment Of Greatness
p833
I3
sVWith An Iron Fist (No Choir)
p834
I1
sVJourney To The Front (NC)
p835
I1
sVSacred Journey (NC)
p836
I1
sVMythos
p837
I2
sVSkull And Crossbones (No Choir)
p838
I1
sVGlobal Crisis 1 (No Choir)
p839
I4
sVConfronting The Dark Lord
p840
I2
sVMythos (NC)
p841
I1
sVCarpathian's Stronghold (No Choir)
p842
I5
sVRex Eternum
p843
I19
sVArmy Of Justice
p844
I13
sVMr. Wonderful (NC)
p845
I3
sVThe Brave Shall Rise (NC)
p846
I2
sVGlobal Crisis 2 (No Choir)
p847
I5
sVReturn Of The King (NC)
p848
I1
sVJourney To The Front
p849
I6
sVArmy Of Justice (No Choir)
p850
I5
sVWe Have A Situation... (No Choir)
p851
I29
sVSacred Journey (No Drums)
p852
I1
sVTo Rise Above (NC)
p853
I2
sVSacred Journey (No Drums) (NC)
p854
I1
sVNight At the Mausoleum (NC)
p855
I3
sVA Call to Valor (NC)
p856
I1
sVConfronting The Dark Lord (No Choir)
p857
I1
sVTo Rise Above
p858
I2
sVThe Dark Knight (No Choir)
p859
I1
sVFate Of The World (No Choir)
p860
I24
sVSlash And Burn (No Choir)
p861
I1
sVThe Adventure (No Choir)
p862
I1
sVPrometheus Rising
p863
I214
sVWhere Your Dreams Come True (No Choir)
p864
I1
sVThe Dark Knight (End Only)
p865
I1
sVMythos Female Voice Solo
p866
I3
sVSuperhero (No Choir)
p867
I2
sVMystery of the Ages
p868
I1
sVQuiet Glory (NC)
p869
I1
sVDivide And Conquer
p870
I311
sVClash Of Titans
p871
I43
sVGlobal Crisis 2
p872
I7
sVGlobal Crisis 1
p873
I4
sVSargon's Legion (No Choir)
p874
I1
sVSkull And Crossbones
p875
I10
sVWaking Up in Pleasanton (NC)
p876
I2
sVCaptain Adventure (No Choir)
p877
I1
sVAge of Discovery
p878
I9
sVJourney To The Front Hybrid
p879
I1
sVThe Brave Shall Rise
p880
I7
sVProvidence
p881
I3
sVThere Comes a Time
p882
I5
sVPrometheus Rising (No Choir)
p883
I146
sVThe Dark Knight
p884
I5
sVFury Unleashed
p885
I9
sVFor Honor and Glory
p886
I5
sVA Hero Among Us (NC)
p887
I3
sVReturn Of The King
p888
I15
sVAge of Discovery (NC)
p889
I3
sVDark Side Of Power (No Choir)
p890
I40
sVUnfortunate Circumstances (NC)
p891
I2
sVProvidence (NC)
p892
I4
sVGenerations
p893
I10
sVReluctant Warrior
p894
I47
sVReluctant Warrior (NC)
p895
I6
sVWithout A Prayer (NC)
p896
I1
sVClash Of Titans (No Choir)
p897
I5
sVTo Places Never Imagined... (No Choir)
p898
I2
sVWar Games (No Choir)
p899
I26
sVSargon's Legion
p900
I4
sVFinal Conflict (No Choir)
p901
I2
sVSuperhero
p902
I5
sVSacred Journey
p903
I2
sVA Moment Of Greatness (NC)
p904
I3
sVDivide And Conquer (No Choir)
p905
I7
sVQuiet Glory
p906
I1
sVThere Comes a Time (NC)
p907
I9
sVRex Eternum (NC)
p908
I4
sVDaddy's Gotta Brand New Tail (NC)
p909
I1
sVBuilding A Better Dream (NC)
p910
I1
sVPrologue
p911
I6
sVWith An Iron Fist
p912
I5
sVA Hero Among Us
p913
I2
sVFury Unleashed (No Choir)
p914
I33
sVFor Honor and Glory (NC)
p915
I1
ssS'Omega2'
p916
(dp917
VDark Is The Knight No Choir
p918
I2
sVRebel Storm
p919
I7
sVPower Within
p920
I4
sVFatal Sky No Choir
p921
I4
sVHonor And Might No Choir
p922
I1
sVHeroes No Choir
p923
I1
sVBoundless
p924
I2
sVPhantom Empire
p925
I2
sVVersus
p926
I2
sVEvent Horizon
p927
I4
sVBlitz No Choir
p928
I1
sVHeroes
p929
I2
sVPhantom Empire No Choir
p930
I1
sVHonor And Might
p931
I2
sVVeiled Justice
p932
I1
sVRavaging No Choir
p933
I1
sVVeiled Justice No Choir
p934
I1
sVDark Is The Knight
p935
I2
sVRavaging
p936
I3
sVRebel Storm No Choir
p937
I5
sVColossal No Choir
p938
I2
sVFatal Sky
p939
I5
sVPower Within No Choir
p940
I1
sVColossal
p941
I8
sVBlitz
p942
I26
sVEvent Horizon No Choir
p943
I1
sVVanishing Shadows
p944
I2
sVVersus No Choir
p945
I1
ssS'Trinity and Beyond'
p946
(dp947
VNight on Tandor Mountain
p948
I3
sVMobilization
p949
I2
sVGathering Forces of Darkness
p950
I2
sVDay of Reckoning
p951
I1
sVOpening the Timegate
p952
I5
sVThe Phantom Empire
p953
I1
sVThe Changeling
p954
I1
sVFrom the Abyss
p955
I1
sVInvasion
p956
I1
sVThe Spell of Lythos
p957
I1
sVApocalypse
p958
I9
sVThe Mists of Scythion
p959
I1
sVDo Robots Dream?
p960
I1
sVSetting Sail
p961
I2
ssS'Comedy #2'
p962
(dp963
VHormonal Behavior
p964
I22
sVCyber Games #1
p965
I2
sVCyber Games #2
p966
I1
sVI'm Back, Baby!
p967
I2
sVCat & Mouse
p968
I4
sVGraduation Day
p969
I1
sVCold Phat
p970
I1
sVBail Bonds Blues
p971
I4
sVBug Fluid
p972
I14
sVGet Morty
p973
I4
sVSpring Break
p974
I1
sVCold Kickin' Ass (no vox)
p975
I2
sVEasy Money
p976
I1
sVKegger
p977
I2
sVBad Hair Day
p978
I18
sVWhole Can Of Whoopass, A
p979
I4
sVYou The Man
p980
I1
sVThree Chord Heroes
p981
I1
sVTwo For Trouble
p982
I1
sVCheck Cashin' Store
p983
I8
sVLa La Land
p984
I11
sVCan't Get Enough
p985
I3
sVCold Kickin' Ass
p986
I1
sVFuhgeddabout It!
p987
I2
sVKings Of Swing
p988
I11
sVThe Shell Game
p989
I2
sVMr. Big
p990
I1
sVWhaz Gone On
p991
I2
sVLittle Gopher Boogie, A
p992
I2
sVSchool's Out
p993
I24
sVSmoking Gun
p994
I2
sVFathead
p995
I4
sVLivin' Large
p996
I1
sVBeguiled
p997
I3
sVRockin' The Boat
p998
I2
sVMessin' With The Man
p999
I1
sVWinner Take All
p1000
I76
sVWedgy
p1001
I3
ssS'Comedy #1'
p1002
(dp1003
VRun for the Border
p1004
I1
sVCan Somebody Please Tell Me...
p1005
I1
sVHard To Please
p1006
I1
sVBound For Trouble
p1007
I1
sVXtra Funk
p1008
I1
sVMother of the Groom
p1009
I1
sVGive It To Me
p1010
I1
sVWhacky Xmas Medley, A
p1011
I3
sVAre You Nuts?
p1012
I2
sVTeknoCop
p1013
I1
sVUptown Jump
p1014
I2
sVAce in the Hole
p1015
I8
sVBirds of a Feather
p1016
I17
sVMucho Gusto
p1017
I1
sVDriving Me Craisy
p1018
I2
sVStarlight Tango
p1019
I1
sVBurning Down The Hut
p1020
I1
sVSteppin' It Up
p1021
I1
sVBooty Dance
p1022
I9
sVBreak It Up
p1023
I1
sVMotel Detective
p1024
I1
sVDave's Dilemma
p1025
I2
sVJunior Trouble
p1026
I65
sVDancing Dwarf, The
p1027
I1
sVGood Cop, Bad Cop
p1028
I1
sVArt of Gunns
p1029
I4
sVRamble
p1030
I1
sVBug-Eyed
p1031
I2
sVI Got Game
p1032
I2
sVLook Who's Back
p1033
I1
sVCentral Park Sleuth
p1034
I4
sVIllinois Stride
p1035
I6
sVBig Bob's Boogie
p1036
I85
sVDanse Macabre
p1037
I1
sVTimmerson's New Gorilla, The
p1038
I6
sVFargo Shuffle
p1039
I33
sVPee Wee's Pocket Circus
p1040
I1
sVMore The Merrier, The
p1041
I1
sVPump This Party
p1042
I1
sVCalypso Cruise
p1043
I36
sVUptown Jump (30)
p1044
I1
sVCoupla Slackers, A
p1045
I60
sVTossin The Kyber
p1046
I45
sVTwo Dummies and a Car
p1047
I1
sVSetup, The
p1048
I2
sVBottoms Up
p1049
I2
sVBungled!
p1050
I20
sVJ.W.A.
p1051
I3
sVMo' Motown
p1052
I1
ssS'Trailerhead: Nu Epiq'
p1053
(dp1054
VProtectors Of Truth
p1055
I723
sVPrologue To A Conquest
p1056
I4
sVThe Unlikeliest Of Heroes
p1057
I6
sVPurple Heart
p1058
I9
sVThis War Must End
p1059
I143
sVOne Destiny To Follow
p1060
I6
sVNight Of The Avenging Angels
p1061
I14
sVDeliverance For All
p1062
I3
sVWolf Moon Uprising
p1063
I11
sVDark Times Are Upon Us
p1064
I4
sVFalling Into Inertia
p1065
I89
sVSaga Of The Immortals
p1066
I7
sVFrom The Ashes We Will Rise
p1067
I34
sVMajestic
p1068
I21
sVThe Fate Of Our Brave
p1069
I13
sVVirtue At All Costs
p1070
I3
sVTranslucent
p1071
I31
sVA Life Extraordinary
p1072
I14
sVThis World Of Wonders
p1073
I8
ssS'Themes for Orchestra and Choir 2 - Abbey...'
p1074
(dp1075
VBlasphemous (Choir)
p1076
I3
sVDef Con (Choir)
p1077
I29
sVAngel Terreste
p1078
I13
sVBlasphemous
p1079
I11
sVOnward To Glory
p1080
I16
sVFarewell To The King (Choir)
p1081
I1
sVHeavens Warriors (Choir)
p1082
I2
sVArcana
p1083
I23
sVThe Tempest
p1084
I2
sVAngel Terreste (Choir)
p1085
I23
sVConquistador
p1086
I4
sVFarewell To The King
p1087
I3
sVGoliath (No Drums)
p1088
I5
sVArmed By Faith
p1089
I5
sVEpicon (Hybrid)
p1090
I12
sVOnward To Glory (Choir)
p1091
I3
sVElectric Romeo
p1092
I13939
sVTimburton Hollow
p1093
I4
sVThe Ludlum Conspiracy (Choir)
p1094
I3
sVRedeemer (Choir)
p1095
I1
sVSacrificium (Choir)
p1096
I4
sVThe Tempest (Choir)
p1097
I2
sVStrength & Honor (Choir)
p1098
I56
sVWith Great Power
p1099
I10
sVNo Holds Barred (Choir)
p1100
I1
sVSalveus (Choir)
p1101
I9
sVCountdown To Oblivion (Choir)
p1102
I3
sVVengeance (Choir)
p1103
I2
sV4 Horsemen 2.0
p1104
I2
sVThe Ludlum Conspiracy
p1105
I4
sVVengeance
p1106
I3
sVWhere Mighty Rivers Run (Choir)
p1107
I4
sVBarbarians At The Gate (Choir)
p1108
I15
sVElectric Romeo (No Choir)
p1109
I710
sVLegions Of Darkness
p1110
I4
sVBelieve
p1111
I154
sVEpicon
p1112
I8
sVHeavens Warriors
p1113
I4
sVTimburton Hollow (Choir)
p1114
I3
sVRising Empire (Choir)
p1115
I25
sVSalveus Con Brio (Choir)
p1116
I1
sVConquistador (Choir)
p1117
I4
sVInfernalis (Choir)
p1118
I5
sVArmed By Faith (Choir)
p1119
I11
sVSalveus Con Brio
p1120
I2
sVThe Rosary Vendetta (Choir)
p1121
I4
sVSacrificium
p1122
I3
sVStrength & Honor
p1123
I6
sVRedeemer
p1124
I2
sVSalveus
p1125
I3
sVBelieve (Choir)
p1126
I12
sVNo Holds Barred
p1127
I2
sVWith Great Power (Choir)
p1128
I20
sVThe Rosary Vendetta
p1129
I25
sVArmageddon (Choir)
p1130
I6
sVCountdown To Oblivion
p1131
I3
sVInfernalis
p1132
I2
sVKingmaker
p1133
I40
sVGoliath (Choir)
p1134
I6
sVThe Black Pearl
p1135
I3
sVThe Black Pearl (Choir)
p1136
I1
sVLucius Dei
p1137
I4
sVBarbarians At The Gate
p1138
I5
sVRising Empire
p1139
I3
sVDef Con
p1140
I23
sVWhere Mighty Rivers Run
p1141
I6
sVApparition
p1142
I11
sVArmageddon
p1143
I8
sV4 Horsemen 2.0 (Choir)
p1144
I2
sVArcana (Choir)
p1145
I9
sVLucius Dei (Choir)
p1146
I1
ssS'Fate of Gods'
p1147
(dp1148
VTrinity(no choir)
p1149
I3
sVOf Gods And Men(no choir)
p1150
I10
sVEquinox
p1151
I7
sVSanctified(no choir)
p1152
I3
sVSanctified
p1153
I9
sVThe Final Crusade
p1154
I47
sVOf Gods And Men
p1155
I60
sVOutliers(no choir)
p1156
I4
sVEntombed
p1157
I49
sVEternal Reign
p1158
I4
sVOur Reckoning(no choir)
p1159
I15
sVOur Reckoning
p1160
I223
sVThe Final Crusade(no choir)
p1161
I4
sVEntombed(no choir)
p1162
I6
sVEternal Reign(no choir)
p1163
I3
sVOutliers
p1164
I20
sVTrinity
p1165
I15
sVEquinox(no choir)
p1166
I6
ssS'Themes For Orchestra and Choir 4'
p1167
(dp1168
VFrom A Land Of Dreams (No Choir)
p1169
I1
sVFrom A Land Of Dreams
p1170
I5
sVPerilous Voyage
p1171
I2
sVA World Of Imagination
p1172
I15
sVPants On Fire
p1173
I3
sVMasquerade Of The Spirits
p1174
I1
sVLegends Of The Brave (No Choir)
p1175
I1
sVThe Desperados
p1176
I1
sVBold Adventurers
p1177
I3
sVAmazing Flight
p1178
I3
sVJourney Through The Abnormal (No Choir)
p1179
I1
sVJourney Through The Abnormal
p1180
I1
sVLegends Of The Brave
p1181
I3
sVBug Fluid 2.0 (No Choir)
p1182
I2
sVMasquerade Of The Spirits (No Choir)
p1183
I1
sVBug Fluid 2.0
p1184
I3
sVThe Last Fortune Hunter
p1185
I1
sVFun Factory
p1186
I4
sVOff We Go To London
p1187
I2
sVMischief And Mayhem
p1188
I1
sVA World Of Imagination (No Choir)
p1189
I2
sVAn Awfully Big Adventure
p1190
I5
sVThe Explorers Ride Again
p1191
I3
sVUnlikely Hero
p1192
I7
sVPerilous Voyage (No Choir)
p1193
I2
ssS'Gates of Valhalla'
p1194
(dp1195
VThe Summoning of Heroes
p1196
I5
sVVanguard of Hope
p1197
I52
sVEnd of a Dark Age
p1198
I8
sVThe Knights Templar
p1199
I11
sVBarbarians at the Gate
p1200
I4
sVSargon's Legions
p1201
I5
sVFarewell to the King (Gates of Valhalla Version)
p1202
I17
sVThe End of Days
p1203
I2
sVKill the Machines
p1204
I2
sVThe Quest for Glory
p1205
I8
sVProud Nation
p1206
I4
sVCarpathian Stronghold
p1207
I1
sVWings of Victory
p1208
I34
sVThe Burden of War
p1209
I6
sVPower of Consequence
p1210
I4
sVArmageddon
p1211
I2
sVGuardians
p1212
I13
sVVictorious
p1213
I1260
sVUnblinded
p1214
I8
sVFrom the Ashes
p1215
I4
ssS'Fields of Glory'
p1216
(dp1217
VHope Of Aurora
p1218
I5
sVUnited
p1219
I4
sVExcalibur
p1220
I461
sVDestiny
p1221
I695
sVNewton's Law
p1222
I89
sVBirth Of A Hero
p1223
I14
sVDark Angel
p1224
I27
sVFields of Glory
p1225
I13
sVThe Mighty Shall Rise
p1226
I11
sVThe Uprising
p1227
I95
sVIn Nomenis
p1228
I6
sVStrength And Honor
p1229
I6
ssS'March On'
p1230
(dp1231
VEndless Freefall
p1232
I5
sVTheory of Us
p1233
I1
sVIlluminate
p1234
I5
sVIn Momentum
p1235
I2
sVLive as You Dream
p1236
I5
sVThe Night Is Far Spent
p1237
I4
sVNeptune
p1238
I2
sVWe Are Dreamers
p1239
I8
sVMarch On
p1240
I3
sVEternal Day
p1241
I3
sVSleeping Giants
p1242
I11
sVCoast Off
p1243
I2
sVSolarity
p1244
I2
ssS'Action & Drama 3'
p1245
(dp1246
VCode Blue
p1247
I3
sVFlight To Freedom: 30
p1248
I0
sVSubterfuge #1
p1249
I3
sVFast Track
p1250
I1
sVThe Gauntlet
p1251
I11
sVCheckpoint
p1252
I0
sVCover Up
p1253
I0
sVChasing A Shadow
p1254
I0
sVFirst Strike
p1255
I0
sVBurning Sky
p1256
I2
sVFinal Countdown
p1257
I3
sVThe Cleaner
p1258
I0
sVMachines Shall Rise
p1259
I1
sVDemon Drums
p1260
I1
sVBreaking Point
p1261
I2
sVTrigger Point
p1262
I0
sVFrenzy
p1263
I1
sVDies Irae
p1264
I3
sVThe Deep End
p1265
I140
sVGlobal Warning: 30
p1266
I1
sVCounter Intelligence
p1267
I4
sVFour Horsemen
p1268
I8
sVDown To The Wire
p1269
I3
sVSubterfuge #2
p1270
I1
sVGhost Dance
p1271
I0
sVDragon Drums
p1272
I1
sVThe Heist
p1273
I2
sVChasing A Shadow: 30
p1274
I2
sVJagged Edge
p1275
I1
sVIt's Not Human...
p1276
I0
sVFlight To Freedom
p1277
I2
sVDefuse It!
p1278
I0
sVWe're Toast
p1279
I0
sVDetente
p1280
I2
sVDead Run
p1281
I1
sVCritical Alert
p1282
I1
sVDarkness Closes In
p1283
I10
sVCall To Arms, A
p1284
I2
sVEngage! #1
p1285
I3
sVAll Hands On Deck
p1286
I5
sVAborigine Fight
p1287
I0
sVEngage! #2
p1288
I2
sVGhost Dance: 30
p1289
I2
sVFirestorm
p1290
I0
sVGlobal Warning
p1291
I1
ssS'Quantum'
p1292
(dp1293
VEnd Of A Dark Age [GENESIS MIX]
p1294
I1
sVIron Giant [FULL MIX]
p1295
I66
sVThe World We Have Left [DREAM CYCLE MIX]
p1296
I2
sVThe Day Is At Hand [EMOTIONAL STRINGS MIX NC]
p1297
I3
sVIron Giant [AGGRO MIX]
p1298
I2
sVEnd Of A Dark Age [GENESIS MIX NC]
p1299
I1
sVTriumph [FULL MIX]
p1300
I2
sVVindicator [EPIC HORIZONS MIX NC]
p1301
I5
sVIron Giant [AGGRO MIX NC]
p1302
I4
sVTriumph [HEROIC POWER MIX]
p1303
I0
sVEclipse [WEEPING MOON MIX]
p1304
I1
sVThe District [AXELESS MIX]
p1305
I4
sVImmortal Legends [FULL MIX]
p1306
I2
sVArmies Of Steel [NC MIX]
p1307
I0
sVThe District [STRIPPED MIX]
p1308
I3
sVVoyage Of Wonder [ADVERSITY MIX]
p1309
I1
sVThe Twelve Titans [CLASSIC MIX NC]
p1310
I0
sVControl The Dream [FULL MIX]
p1311
I17
sVImmortal Legends [SPARTAN MIX]
p1312
I3
sVThe Day Is At Hand [REVERENCE MIX NC]
p1313
I6
sVVictorious [FULL MIX]
p1314
I52
sVWolf Moon 2012 [NC MIX]
p1315
I1
sVThe World We Have Left [FULL MIX]
p1316
I1
sVBattle For The Underground [FULL MIX]
p1317
I6
sVThe Twelve Titans [NC MIX]
p1318
I6
sVAvenging Angel [REQUIEM MIX]
p1319
I1
sVAngels And Mercenaries [NC MIX]
p1320
I1
sVTriumph [NC MIX]
p1321
I1
sVTriumph [GLORY MIX NC]
p1322
I1
sVTriumph [HEROIC POWER MIX NC]
p1323
I1
sVVindicator [EPIC HORIZONS MIX]
p1324
I17
sVRise Of The Chosen pt2 [FULL MIX]
p1325
I3
sVRise Of The Chosen pt1 [FULL MIX]
p1326
I12
sVTriumph [CONQUEROR MIX NC]
p1327
I1
sVRise Of The Chosen pt2 [EPIC HORIZONS MIX]
p1328
I4
sVSt. Francis By Moonlight [SCORCHED MIX NC]
p1329
I1
sVSurvive The Game [NO MELODY MIX]
p1330
I7
sVState Of Grace [NC MIX]
p1331
I1
sVVindicator [NC MIX]
p1332
I4
sVIron Giant [HUMAN MIX]
p1333
I3
sVThe Twelve Titans [CLASSIC MIX]
p1334
I0
sVSt. Francis By Moonlight [CLASSIC MIX]
p1335
I5
sVArmies Of Steel [FULL MIX]
p1336
I30
sVVoyage Of Wonder [FULL MIX]
p1337
I1
sVVindicator [FULL MIX]
p1338
I20
sVEnd Of A Dark Age [NC MIX]
p1339
I1
sVVindicator [DARK HERO MIX NC]
p1340
I2
sVSoul of A Warrior [ADAGIO MIX]
p1341
I0
sVThe Day Is At Hand [REVERENCE MIX]
p1342
I5
sVThe Day Is At Hand [CLASSIC MIX]
p1343
I7
sVSurvive The Game [FULL MIX]
p1344
I62
sVIron Giant [HUMAN MIX NC]
p1345
I3
sVState Of Grace [FULL MIX]
p1346
I20
sVBattle For The Underground [FEMVOX MIX]
p1347
I3
sVArmies Of Steel [DEPLOYMENT MIX]
p1348
I1
sVSt. Francis By Moonlight [SCORCHED MIX]
p1349
I1
sVThe Twelve Titans [FULL MIX]
p1350
I4
sVEnd Of A Dark Age [FULL MIX]
p1351
I2
sVThe District [RED ALERT MIX]
p1352
I2
sVIron Giant [NC MIX]
p1353
I1
sVImmortal Legends [SPARTAN MIX NC]
p1354
I2
sVThe Hunger [FULL MIX]
p1355
I8
sVControl The Dream [NC MIX]
p1356
I2
sVSt. Francis By Moonlight [FULL MIX]
p1357
I34
sVThe Twelve Titans [MODERN MYTH MIX]
p1358
I1
sVTriumph [GLORY MIX]
p1359
I2
sVWolf Moon 2012 [FULL MIX]
p1360
I1
sVWolf Moon 2012 [RITUAL MIX]
p1361
I1
sVThe Hunger [NC MIX]
p1362
I1
sVVoyage Of Wonder [NC MIX]
p1363
I1
sVAngels And Mercenaries [PUNISHED MIX]
p1364
I2
sVRise Of The Chosen pt2 [EPIC HORIZONS MIX NC]
p1365
I2
sVThe Hunger [BLOODSUCKER MIX]
p1366
I1
sVVictorious [INSPIRATION MIX NC]
p1367
I1
sVThe Hunger [BLOODSUCKER MIX NC]
p1368
I1
sVEnd Of A Dark Age [REDEMPTION MIX NC]
p1369
I1
sVAvenging Angel [FULL MIX NC]
p1370
I1
sVSoul of A Warrior [ADAGIO MIX NC]
p1371
I1
sVVoyage Of Wonder [ENCHANTED MIX]
p1372
I1
sVAngels And Mercenaries [FULL MIX]
p1373
I5
sVThe District [FULL MIX]
p1374
I8
sVRise Of The Chosen pt2 [DARK HERO MIX]
p1375
I3
sVBattle For The Underground [ABUSIVE MIX]
p1376
I1
sVControl The Dream [DAFTRON MIX]
p1377
I42
sVVictorious [INSPIRATION MIX]
p1378
I2
sVVoyage Of Wonder [ENCHANTED MIX NC]
p1379
I0
sVControl The Dream [DECEPTION MIX]
p1380
I5
sVSoul Of A Warrior [NC MIX]
p1381
I1
sVVictorious [NC MIX]
p1382
I3
sVVindicator [DARK HERO MIX]
p1383
I19
sVEclipse [FULL MIX]
p1384
I75
sVEnd Of A Dark Age [REDEMPTION MIX]
p1385
I3
sVThe Day Is At Hand [EMOTIONAL STRINGS MIX]
p1386
I33
sVThe Day Is At Hand [NC MIX]
p1387
I6
sVSt. Francis By Moonlight [NC MIX]
p1388
I73
sVThe Hunger [SHOWDOWN MIX]
p1389
I1
sVTriumph [CONQUEROR MIX]
p1390
I0
sVSoul Of A Warrior [FULL MIX]
p1391
I28
sVAvenging Angel [FULL MIX]
p1392
I3
sVThe Day Is At Hand [FULL MIX]
p1393
I7
sVThe World We Have Left [NIGHT DRIVE MIX]
p1394
I0
sVRise Of The Chosen pt1 [NC MIX]
p1395
I254
sVImmortal Legends [NC MIX]
p1396
I2
sVRise Of The Chosen pt2 [NC MIX]
p1397
I8
sVState Of Grace [ADAGIO MIX]
p1398
I1
ssS'Existence'
p1399
(dp1400
VAcolada
p1401
I33
sVOpen Rebellion
p1402
I19
sVManifesting
p1403
I79
sVExistence
p1404
I405
sVVigorous Warfare
p1405
I66
sVThe Hatch
p1406
I36
sVBrave Souls
p1407
I20
sVInterlope
p1408
I15
sVOpposing Tides
p1409
I15
sVChosen For A Purpose
p1410
I13
sVThe Maze
p1411
I15
sVRestoration
p1412
I22
sVInfiltration
p1413
I16
sVState Of War
p1414
I34
sVHidden Embers
p1415
I19
sVFuture War
p1416
I18
ss.