(dp0
S'Emperor Waltz-Karajan'
p1
(dp2
VPolka Francaise
p3
I24
sVHunting
p4
I33
sVEmperor Waltz
p5
I100
sVChit-Chat-Polka
p6
I52
sVRoses From The South
p7
I22
sVWine, Women And Song
p8
I19
sVThe Gypsy Baron (Overture)
p9
I17
ss.