(dp0
S'Justin Guarini'
p1
(dp2
VOne Heart Too Many
p3
I7
sVI Saw Your Face
p4
I85
sVHow Will You Know
p5
I16
sVIf You Wanna
p6
I2
sVDoin' Things (We're Not Supposed To)
p7
I7
sVUnchained Melody
p8
I18
sVTimeless (duet with Kelly Clarkson)
p9
I1394
sVBe A Heartbreaker
p10
I29
sVCondition Of My Heart
p11
I185
sVThinking Of You
p12
I9
sVSorry
p13
I5
sVInner Child
p14
I5
sVGet Here
p15
I11
ss.