(dp0
S"I Can't Say No! "
p1
(dp2
VI Can\u2019t Say No! (Broiler Extended Mix)
p3
I58
sVI Can't Say No! (Filterheadz Remix)
p4
I32
sVI Can't Say No! (Broiler Remix)
p5
I5146
sVI Can't Say No!
p6
I455
ssS'Sleep!'
p7
(dp8
VSleep! (Extended)
p9
I58
sVSleep!
p10
I1187
sVSleep, for the Weak! (Lost Frequencies Extended Remix)
p11
I198
sVSleep, for the Weak! (Lost Frequencies Remix)
p12
I144
ss.