(dp0
S'Slumber (Tommy Trash Remix)'
p1
(dp2
VSlumber (Tommy Trash Remix)
p3
I3
ssS'Goodbye From California'
p4
(dp5
VAnchor of Love
p6
I51
sVWhere I Belong
p7
I195
sVUncover
p8
I164
sVSun
p9
I53
sVYou Make Me Happy
p10
I1319
sVMonkey and the Tree
p11
I44
sVThe Honey and the Bee
p12
I70
sVWeight of the World
p13
I12
sVBrand New Day (with Tim Myers)
p14
I44
sVBetter Off
p15
I5828
sVGoodbye From California
p16
I52
ss.