(dp0
S'We Just Laugh About It '
p1
(dp2
VWe Just Laugh About It
p3
I2925
ssS'Young & Clever'
p4
(dp5
VHop Non Stop
p6
I44
sVMe and You
p7
I8677
sVThis Song
p8
I38
sVShake Like a Freak
p9
I16
sVNo Friend of Mine
p10
I14
sVLucky
p11
I34
sVPush
p12
I19
sVMidnight Crying
p13
I9
sVSpeedy Gonzales
p14
I24
sVHey Girl
p15
I38
sVBig Bad Boys
p16
I12
sVThe Lucky Twice Song
p17
I151
ss.