(dp0
S"O'jar"
p1
(dp2
VO'jar
p3
I266
ssS'Yonar'
p4
(dp5
VYonar
p6
I289
ssS'Yurak'
p7
(dp8
VYurak
p9
I571
ssS'Sensiz'
p10
(dp11
VSensiz
p12
I687
ssS'Vo Ajab'
p13
(dp14
VVo ajab
p15
I121
ssS'Sakramento'
p16
(dp17
VSakramento
p18
I111
ss.