(dp0
S'Archangel'
p1
(dp2
VAtlantis - Original
p3
I144
sVDark Harbor - Original
p4
I32
sVUnexplained Forces - Original
p5
I15
sVThe Last Stand - Original
p6
I38
sVHe Who Brings the Night - Original
p7
I35
sVDragon Rider - Original
p8
I9357
sVUnited We Stand - Divided We Fall - Original
p9
I1220
sVDestructo - Original
p10
I55
sVArchangel - Original
p11
I543
sVStrength of a Thousand Men - Original
p12
I3415
sVLove & Loss - Original
p13
I1263
sVNero - Original
p14
I93
sVMercy in Darkness - Original
p15
I70
sVSanctuary is Lost - Original
p16
I14
sVIronwing - Original
p17
I51
sVFriendship to Last - Original
p18
I76
sVEverlasting - Original
p19
I412
sVAesir - Original
p20
I13
sVCaradhras - Original
p21
I17
sVNorwegian Pirate - Original
p22
I432
sVImmortal Avenger - Original
p23
I16
sVArmy of Justice - Original
p24
I18
sVMagic of Love - Original
p25
I228
sVMountains From Water - Original
p26
I13
sVTitan Dune - Original
p27
I80
sVWhat's Happening to Me - Original
p28
I21
ssS'Nemesis'
p29
(dp30
VSky Titans
p31
I29
sVNemesis
p32
I81
sVAtlantis
p33
I3265
sVFriendship To Last
p34
I48
sVSons Of War
p35
I112
sVEnigmatic Soul
p36
I22
sVClash Of Empires
p37
I373
sVRoad To Revelation
p38
I354
sVArmy Of Justice
p39
I140
sVDominion Heart
p40
I8
sVWrath Of Sea
p41
I135
sVGod Of Lightning
p42
I59
sVRed Omen
p43
I9
sVThe Immortals
p44
I15
sVTristan
p45
I20
sVMoving Mountains
p46
I28
sVEternal Sorrow
p47
I43
sVFalse King
p48
I377
sVDark Ages
p49
I694
sVHunter's Moon
p50
I15
sVFountain Of Life
p51
I14
ssS'Illumina'
p52
(dp53
VHot Cargo
p54
I6
sVSidyana
p55
I10
sVShipwrecked
p56
I5
sVYou Will Count Your Dead
p57
I3
sVA Hole In The Sun
p58
I57
sVUlthuan
p59
I16
sVR.E.M
p60
I12
sVShaken, Not Stirred
p61
I5
sVBourne in the Future
p62
I3
sVI Love You Forever
p63
I486
sVWalking on Air
p64
I4
sVMissing Letters
p65
I4
sVCorruption
p66
I195
sVYou Walk This Earth Alone
p67
I4
sVThrenody
p68
I5
sVEnigma
p69
I14
sVGlobal Waste
p70
I9
sVPainted World
p71
I16
sVMorningstar
p72
I17
sVPaper Planes
p73
I32
sVScience
p74
I23
sVEyes Closing
p75
I20
sVPrelude To A Nightmare
p76
I4
sVCloud Maker
p77
I38
sVThe Frail
p78
I4
sVCould've Been
p79
I31
sVLost in Las Vegas
p80
I74
sVRapture
p81
I5
sVShe See's The Future
p82
I5
sVTimelapse
p83
I6
sVDown
p84
I14
sVLove Suspended
p85
I6
sVOrganic Multiplication
p86
I13
ssS'Balls to the Wall'
p87
(dp88
VArmy Of Drummers
p89
I5
sVBob The Bot
p90
I2
sVWhere's Waldo
p91
I4
sVMind Crucher
p92
I2
sVWe Are Fucked (Alternate Mix)
p93
I4
sVThese Boots Are Made For Crush
p94
I3
sVDeath Machines
p95
I5
sVEisenwolf
p96
I2
sVDomo Arigato
p97
I2
sVCharge!
p98
I5
sVCrescendo In Crash Minor
p99
I5
sVConcrete Collapsing
p100
I2
sVAll Taikos Go To Hell
p101
I11
sVOver My Dead Body
p102
I9
sVIs It Dead
p103
I12
sVFlip The Switch
p104
I2
sVCutting The Wire
p105
I2
sV10000 Watts
p106
I5
sVFight The Clock
p107
I3
sVRobocode
p108
I2
sVTribal Sacrifice
p109
I3
sVWe Are Fucked
p110
I6
sVTattoo Drum Corps
p111
I3
sVBalls To The Wall
p112
I5
sVWave Of Steel
p113
I3
sVFrogman Of Alcatraz
p114
I2
sVMarch Of Destruction
p115
I6
sVGamechanger (Percussion Only)
p116
I2
sVMen Of Thunder
p117
I5
sVNuclear Sunrise
p118
I5
sVThe Hollywood Droid
p119
I3
sVBait
p120
I4
sVEscalation
p121
I4
sVBunker Buster
p122
I4
sVMetzger From Hell
p123
I3
sVDim The Lights
p124
I4
sVMissile Command
p125
I1
sVDead End
p126
I13
sVInfected Cloud
p127
I5
sVRise Of The Razors
p128
I2
sVHoldout
p129
I4
sVGamechanger
p130
I5
ssS'Dreams and imaginations'
p131
(dp132
VFrom The Heart Of Paris
p133
I5
sVIt Tells A Story (No Choir)
p134
I3
sVMind Tricks
p135
I8
sVTouched By Her Hand
p136
I38
sVInto Unknown Space
p137
I8
sVDreams & Imaginations
p138
I8
sVGentle Breeze
p139
I21
sVWake of Desolation
p140
I6
sVSun Gazer
p141
I18
sVBehold Atlantis
p142
I5
sVThrough Devil's Eyes (No Choir)
p143
I3
sVSecrets Of The Mind (No Vocals)
p144
I3
sVAfrican Sunset
p145
I8
sVHidden Beauty
p146
I5
sVFrozen Moment
p147
I16
sVElven Princess
p148
I29
sVIntoxication
p149
I23
sVDeep Seeded
p150
I11
sVBed Of Roses (No Vocals)
p151
I8
sVSleepless
p152
I5
sVTorches
p153
I13
sVNew Dawn
p154
I8
sVIt's The Season For Love (No Choir)
p155
I8
sVGreat Spirits
p156
I35
sVElectric People
p157
I6
sVGoodbye For Now
p158
I586
sVForsaken
p159
I9
sVNepal In May
p160
I9
sVSetting Sail
p161
I6
sVSolitude
p162
I9
sVSusanna's Mourning
p163
I5
sVWater Reflections
p164
I8
sVMoving Shadows
p165
I11
sVForgotten September
p166
I8
sVAncient Cities
p167
I3
sVPossessed Gramophone
p168
I9
sVScent Of A Woman
p169
I12
sVCelebrate Life
p170
I9
sVHold Me
p171
I15
sVParfait Amour
p172
I13
sVLament For The Lonely
p173
I11
sVLonesome Dove
p174
I4
sVPeace of Mind
p175
I7
sVThrough Devil's Eyes
p176
I6
sVSupression
p177
I5
sVAllure
p178
I9
sVMio Rio
p179
I5
sVColor The Sky
p180
I19
sVEria
p181
I11
sVRapid Eye Movement
p182
I17
sVMemories
p183
I21
sVIt's The Season For Love
p184
I8
sVHell's Gate
p185
I4
sVTears
p186
I3
sVLife Is Beautiful
p187
I10
sVEarthgirl
p188
I15
sVMissed You
p189
I9
sVClair Voyant
p190
I14
sVLux Aeterna
p191
I8
sVOnce Upon A Time
p192
I5
sVA Thousand Miles Apart
p193
I6
sVPerfect Assassination
p194
I7
sVBlink Of An Eye (B)
p195
I7
sVMulholland Drive
p196
I6
sVMeant To Be
p197
I12
sVWings
p198
I17
sVIt Tells A Story
p199
I7
sVHell's Gate (No Vocals)
p200
I5
sVSecrets Of The Mind
p201
I6
sVForgotten September (B)
p202
I10
sVBroken Hearts
p203
I9
sVEl Mexicano
p204
I5
sVBlink Of An Eye (A)
p205
I5
sVDrifting Thoughts
p206
I8
sVSnowfall
p207
I6
sVAurora Boralis
p208
I10
sVSweet May
p209
I6
sVEndless Night
p210
I5
sVSilent Prayer
p211
I6
sVPainted By Numbers
p212
I12
sVAnother Life
p213
I6
sVForever In My Dreams
p214
I10
sVForgotten Realms
p215
I5
sVFlying
p216
I14
sVNorthern Pastures
p217
I7
sVFalling
p218
I5
sVHello World
p219
I1173
sVBed of Roses
p220
I13
sVFate Of The Deserted
p221
I6
sVReset Life
p222
I8
sVFortress Of Seduction
p223
I9
sVTransfiguration
p224
I8
sVA Small Step For Mankind
p225
I17
sVMoonshine
p226
I4
sVI See The Future
p227
I6
sVChill Of The Night
p228
I6
sVElysium
p229
I6
sVRiver Of Tears
p230
I4
sVWeightless
p231
I7
sVA Hero's Return
p232
I8
sVEntombed
p233
I8
sVMmm Chicken
p234
I4
sVRemembrance
p235
I12
sVVisions
p236
I6
ssS'Heaven Anthology'
p237
(dp238
VMotherland
p239
I125
sVReach for the Skies
p240
I534
sVBenedictus
p241
I77
sVHeart
p242
I283
sVMen of Honor, Pt. 2
p243
I57
sVInto the Moonlight
p244
I60
sVWelcome to Fantasia
p245
I43
sVNeptune's Secret
p246
I78
sVLiberty Rising
p247
I69
sVForever More
p248
I49
sVHope
p249
I87
sVAn Awfully Big Adventure
p250
I42
sVGloria
p251
I59
sVShe's a Superhero
p252
I48
sVBroken Dream
p253
I51
sVBeyond the Horizon
p254
I38
ssS'Two Steps From Heaven'
p255
(dp256
VMotherland
p257
I17
sVReach For The Skies
p258
I30
sVBenedictus
p259
I14
sVHeart
p260
I101
sVInto The Moonlight
p261
I9
sVMen Of Honor Part Ii
p262
I14
sVWelcome To Fantasia
p263
I16
sVSpirit Of Moravia
p264
I22
sVMen Of Honor
p265
I51
sVLiberty Rising
p266
I19
sVForever More
p267
I13
sVShes A Superhero
p268
I17
sVHope
p269
I26
sVAn Awfully Big Adventure
p270
I6
sVNeptunes Secret
p271
I12
sVBeyond The Horizon
p272
I13
sVStrength Of An Empire
p273
I21
sVGloria
p274
I16
sVCassandra
p275
I692
ssS'Power of Darkness'
p276
(dp277
VAtlas (Alt 2)
p278
I7
sVInvincible (Alt 1)
p279
I6
sVGravitation
p280
I8
sVBed Of Nails
p281
I4
sVEarth Rising (Alt 1)
p282
I5
sVAtlas
p283
I10
sVDark Harbor
p284
I11
sVInvincible
p285
I28
sVIronwing (Alt 1)
p286
I5
sVEternal Honor (Alt 2)
p287
I4
sVFire Nation
p288
I7
sVFire Nation (Alt 1)
p289
I9
sVEarth Rising
p290
I11
sVBlack Blade
p291
I95
sVBlack Blade (Alt 1)
p292
I16
sVAtlas (Alt 1)
p293
I18
sVIronwing
p294
I24
sVEternal Honor (Alt 1)
p295
I2
sVDark Harbor (Alt 1)
p296
I8
sVEternal Honor
p297
I3
sVJump!
p298
I570
sVFire Nation (Alt 2)
p299
I2
ssS'Burn'
p300
(dp301
VFor The Win Dance (Remix) - remix
p302
I12018
sVNot Your Soul
p303
I79
sVTyrianis Dubstep (Remix) - remix
p304
I57
sVIron Soul Dubstep (Remix) - remix
p305
I74
sVEl Dorado Dubstep (Remix) - remix
p306
I59432
sVStrength Of A Thousand Men Dubstep (Remix) - remix
p307
I694
sVWinterspell Dubstep (Remix) - remix
p308
I458
sVAll Is Hell That Ends Well Dubstep (Remix) - remix
p309
I59
ssS'The Devil Wears Nada'
p310
(dp311
VSmirnoff
p312
I6
sVLittle Ben
p313
I7
sVWill We Ever Meet Again
p314
I9
sVTo The Tower
p315
I4
sVLove Doctor
p316
I7
sVBroommaker's Assistant
p317
I6
sVProfessor Pumplestickle
p318
I6
sVLevitating Lilimongers
p319
I3
sVWe Can Fly
p320
I9
sVSay Yes
p321
I13
sVVenezuela
p322
I7
sVFollow That Kid
p323
I4
sVI Smell A Rat
p324
I7
sVWe Can Fly (With Bells)
p325
I4
sVAfter The Fall
p326
I1137
sVThe Whistleblower
p327
I3
sVClock Tower Parade
p328
I8
sVMidtown Mayhem
p329
I5
sVToys Come Alive
p330
I7
sVProfessor Pumplestickle (No Band)
p331
I2
sVAfter The Fall (No Voice)
p332
I36
sVAmerican Soldier
p333
I16
sVLeaping Lucifer
p334
I4
sVBaron Von Scheissenhausen
p335
I12
sVMonkey Business
p336
I5
sVWaltz of the Willows
p337
I12
sVLiar Liar Pants on Fire
p338
I5
sVElection Daze
p339
I16
sVMy Little Friend Max
p340
I15
sVFoggy Beginnings
p341
I9
sVSecret Places
p342
I6
sVAmerican Soldier (No Perc Intro) - intro
p343
I9
sVSky Brigade
p344
I6
sVSunrise
p345
I14
ssS'Christmas Medley'
p346
(dp347
VChristmas Medley
p348
I1073
ssS'Stay'
p349
(dp350
VStay
p351
I363
ssS'Pathogen'
p352
(dp353
VIron Nation
p354
I7
sVElectro Freak
p355
I54
sVFalse King (Rock)
p356
I64
sVCrash
p357
I5
sVRun_N_Gun
p358
I7
sVIron Soul
p359
I28
sVDeathslinger
p360
I7
sVKickdown
p361
I24
sVIce Planet
p362
I15
sVWar Of Angels
p363
I8
sVForsaken
p364
I6
sVCannibal
p365
I9
sVOtherworld
p366
I8
sVBeam Of Light
p367
I6
sVGothic Cowboy
p368
I8
sVShed My Skin
p369
I8
sVThe Raven Talks Backwards
p370
I4
sVPathogen
p371
I11
ssS'Legend'
p372
(dp373
VLegions of Faith
p374
I37
sVDivine Intervention
p375
I5
sVDestiny of Mankind
p376
I91
sVHeart of Courage
p377
I7266
sVUndying Love
p378
I37
sVFateful Night
p379
I8
sVFill My Heart
p380
I17
sVVoyager
p381
I7
sVDreams of the Dead
p382
I5
sVGoddysey
p383
I10
sVPerilous Journey
p384
I4
sVPerchance to Dream
p385
I16
sVCall to Arms
p386
I142
sVFields of Blood
p387
I319
sVFallout
p388
I7
sVHypnotica
p389
I35
sVFreedom Fighters
p390
I269
sVEquus
p391
I27
sVA.S.A.P.
p392
I75
sVAdventure of a Lifetime
p393
I29
sVNever Forget
p394
I53
sVInfinite legends
p395
I75
sVForces of Destiny
p396
I50
sVAsimov
p397
I149
sVCalamity
p398
I118
sVUndying Love (Choir - Extended Mix) - remix
p399
I322
sVRed Carpets
p400
I35
sVShadow of Beauty
p401
I4
sVRising Force
p402
I21
sVMoonlight Armies
p403
I28
sVCalamity (Remix) 
p404
I18
sVWhite Witch
p405
I18
sVThe Crossing
p406
I23
sVProtectors of the Earth
p407
I1531
sVSmell of Victory
p408
I48
sVDay Becomes Night
p409
I71
sVCrusaders
p410
I9
sVDown With The Enterprise
p411
I13
ssS'All Drones Go To Hell'
p412
(dp413
VVoice Of The Underworld
p414
I1
sVSeeds Of Fury
p415
I2
sVTrekka
p416
I0
sVGravity
p417
I3
sVSole Survivor
p418
I2
sVWater Temple
p419
I2
sVFallen City
p420
I2
sVInto The West
p421
I4
sVThe Golden Falls
p422
I2
sVVatinime
p423
I1
sVCorruption
p424
I4
sVUltimate Sacrifice
p425
I1
sVWe Will Bury You
p426
I1
sVBamboozel
p427
I3
sVWay To Earth
p428
I1
sVTree Of Forgiveness
p429
I1
sVA Growing Feeling
p430
I9
sVFalse Prince
p431
I5
sVTranscending
p432
I1
sVMountaintops
p433
I3
sVDuduction
p434
I3
sVCountdown To Insanity
p435
I8
sVHighlands
p436
I1
sVSymbols In The Sand
p437
I1
sVLazuri
p438
I2
sVBefore The Battle
p439
I3
sVThe Wind Is Watching
p440
I2
sVFrom The Past
p441
I3
sVDreams Of The Seven
p442
I2
sVIrganon
p443
I2
sVResting Place
p444
I1
sVUnter Flow
p445
I3
sVDivide
p446
I3
sVMystical Beginnings
p447
I3
sVCaspia
p448
I5
sVTragic Dragon
p449
I2
sVLoner
p450
I3
sVStaff Of Lightning
p451
I1
sVFragments Of Your Imagination
p452
I3
sVWalking To Damascus
p453
I2
sVIt Always Comes
p454
I2
sVEarth
p455
I4
sVWhite Plains
p456
I1
sVDominion
p457
I3
ssS'Nero Anthology'
p458
(dp459
VUnited We Stand - Divided We Fall (Instrumental)
p460
I29
sVDestructo (Instrumental)
p461
I22
sVFear the Resurrection
p462
I17
sVBirth of a Hero (Instrumental)
p463
I40
sVFatal Fury
p464
I19
sVOz No More
p465
I18
sVTo Glory (Instrumental)
p466
I59
sVDestiny Will Wait
p467
I21
sVAesir (Orchestra)
p468
I83
sVThe Devil Plays a Smoking Trumpet
p469
I54
sVMagic of Love (No Irish Whistle)
p470
I24
sVStrength of a Thousand Men (Instrumental)
p471
I82
sVEverlasting (Irish Low Whistle)
p472
I32
sVUndefeated (Instrumental)
p473
I42
sVExodus
p474
I34
sVThe Last Stand (Instrumental)
p475
I21
sVAesir (Ethnic Version)
p476
I657
sVFear the Resurrection (Indie)
p477
I17
sVKing Louie Kablooey
p478
I24
sVLotus Mother
p479
I21
sVArchangel (Instrumental)
p480
I122
sVTower of Mischief
p481
I23
sVCaradhras (Instrumental)
p482
I28
sVRide to Victory (Instrumental)
p483
I34
sVAm I Not Human (No Synths)
p484
I37
sVMagic of Love (Epic Version)
p485
I41
sVArea 51
p486
I53
sVEverlasting (Instrumental)
p487
I17
sVAllegro Agitato
p488
I56
sVCasablanca (Instrumental)
p489
I24
sVFive Finger Fillet
p490
I22
sVAesir (Instrumental)
p491
I56
sVDisappear
p492
I37
sVCrack in Time
p493
I22
ssS'Invincible'
p494
(dp495
VFire Nation - Original
p496
I34
sVMoving Mountains - Original
p497
I82
sVFreedom Fighters - Original
p498
I155
sVFalse King - Original
p499
I4277
sVVelocitron - Original
p500
I18
sVInvincible - Original
p501
I909
sVEnigmatic Soul - Original
p502
I101
sVHeart of Courage - Original
p503
I1391
sVProtectors of the Earth - Original
p504
I215
sV1000 Ships of the Underworld - Original
p505
I38
sVBreath of Ran Gor - Original
p506
I13
sVUndying Love - Original
p507
I242
sVFill My Heart - Original
p508
I118
sVSuper Strength - Original
p509
I16
sVAm I Not Human? - Original
p510
I78
sVInfinite Legends - Original
p511
I37
sVTo Glory - Original
p512
I1798
sVBlack Blade - Original
p513
I943
sVHypnotica - Original
p514
I17
sVMaster of Shadows - Original
p515
I166
sVTristan - Original
p516
I561
sVAfter The Fall - Original
p517
I1160
ssS'Quarantine'
p518
(dp519
VWe Walk A Different Path
p520
I5
sVAll Systems Go
p521
I9
sVIced
p522
I8
sVQuarantine
p523
I10
sVTimeripper
p524
I11
sVMechanisma
p525
I14
sVWasteland
p526
I5
sVGuardians
p527
I10
sVArisen (No Orchestra)
p528
I13
sVWe Rule The World
p529
I8
sVArisen
p530
I33
ssS'Colin Frake On Fire Mountain'
p531
(dp532
VColin Frake
p533
I71
sVLight Comes Before Dark
p534
I9
sVGore's Theme
p535
I20
sVHadrian's Demon
p536
I11
sVDownstream
p537
I13
sVHe's the Giant
p538
I17
sVLegend of Velkee
p539
I11
sVPrologue
p540
I11
sVNightwood
p541
I20
sVTalia's Theme
p542
I21
sVBattle At Hoback
p543
I10
sVFire Mountain
p544
I99
sVQueen of the Forest
p545
I11
sVReanne
p546
I37
ssS'SkyWorld'
p547
(dp548
VRealm Of Power
p549
I46
sVFor The Win
p550
I12374
sVStarfleet
p551
I42
sVJuggernaut
p552
I53
sVOur Last Hope
p553
I36
sVDark Ages
p554
I81
sVIcarus
p555
I32
sVBreathe
p556
I4774
sVBack To Earth
p557
I41
sVBig Sky
p558
I138
sVBlackheart
p559
I8649
sVAll The King's Horses
p560
I90
sVQueen Of Crows
p561
I47
sVWinterspell
p562
I3340
sVAll Is Hell That Ends Well
p563
I348
sVSkyworld
p564
I3017
sVThe End Is The Beginning
p565
I58
sVBlizzard
p566
I307
sVEl Dorado
p567
I16906
sVTitan Dream
p568
I112
sVOcean Kingdom
p569
I149
sVSun & Moon
p570
I292
ssS'Power of Darkness Anthology'
p571
(dp572
VGravitation
p573
I47
sVVelocitron (Instrumental)
p574
I27
sVArgovia (Instrumental)
p575
I49
sVArgovia
p576
I37
sVTen Feet Tall
p577
I26
sVThe Soul That Must Awaken (Instrumental)
p578
I26
sVFight the Machine
p579
I46
sVFreefall
p580
I65
sVEternal Honor (Orchestral)
p581
I20
sVIronheart (Instrumental)
p582
I21
sVIronwing (Instrumental)
p583
I32
sVKronos
p584
I33
sVFreefall (Instrumental)
p585
I24
sVNorwegian Pirate (Instrumental)
p586
I39
sVClockmen (Instrumental)
p587
I28
sVPower of Darkness (Orchestral)
p588
I39
sVInvincible (Instrumental)
p589
I38
sVClockmen
p590
I28
sVThe Ancients (Instrumental)
p591
I41
sVGhost Brigades (Instrumental)
p592
I28
sVFire Nation (Instrumental)
p593
I61
sVKronos (Instrumental)
p594
I24
sVAtlas (Instrumental Alt)
p595
I24
sVBlack Blade (Instrumental)
p596
I1076
sVDark Harbor (Instrumental)
p597
I313
sV72 Virgins (Instrumental)
p598
I36
sVFire Nation (Duduk Intro)
p599
I39
sVTen Feet Tall (Instrumental)
p600
I22
sVHe Who Brings the Night (Instrumental)
p601
I25
sVBed of Nails
p602
I29
sVMaster of Shadows (Orchestral)
p603
I56
sVDecimator (Instrumental)
p604
I35
sVTitan Dune (Instrumental)
p605
I43
sVMagnan Imus (Instrumental)
p606
I19
sVEternal Honor
p607
I24
sVThe Cross of Antiquan (Instrumental)
p608
I26
sVWhat's Happening to Me (Instrumental)
p609
I27
sVAtlas (Instrumental)
p610
I29
sVEarth Rising (Instrumental)
p611
I159
sVMaster of Shadows (Instrumental)
p612
I118
ssS'Battlecry'
p613
(dp614
VFlight Of The Silverbird
p615
I10002
sVWolf King
p616
I361
sVNo Honor In Blood
p617
I153
sVCannon In D Minor
p618
I1142
sVStar Sky
p619
I41020
sVStar Sky - Instrumental
p620
I41432
sVUnforgiven
p621
I172
sVBattleborne - Instrumental
p622
I276
sVBlackout
p623
I155
sVOutpost
p624
I165
sVRed Tower
p625
I307
sVAcross The Blood Water
p626
I179
sVStronger Faster Braver
p627
I210
sVRelease Me 
p628
I2085
sVRise Above
p629
I1157
sVVictory
p630
I167875
sVUltraground
p631
I164
sVNone Shall Live
p632
I1095
sVBattleborne
p633
I323
sVStormkeeper
p634
I742
sVFreedom Ship
p635
I144
sVLast Of The Light
p636
I209
sVAmaria
p637
I222
sVSariel
p638
I384
sVSpellcaster
p639
I204
sVNever Back Down
p640
I8079
ssS'Classics, Vol. 1'
p641
(dp642
VLittle Ben
p643
I25
sVNemesis
p644
I19
sVBirth of a Hero
p645
I380
sVIronheart
p646
I10
sVThe Cross of Antiquan
p647
I14
sVSons of War
p648
I43
sVSky Titans
p649
I150
sVClair Voyant
p650
I84
sVThe Ancients
p651
I11
sVSpirit of Moravia
p652
I19
sVPath to Earth
p653
I13
sVEarth Rising
p654
I10
sVMagnan Imus
p655
I16
sVAsimov
p656
I42
sVFortress of Seduction
p657
I11
sVArmada
p658
I60
sVReturn from Darkness
p659
I12
sVWhite Witch
p660
I19
sVEternal Sorrow
p661
I19
sVStormwatch
p662
I6
sVJump!
p663
I9060
sVThe World Is Mind
p664
I31
sVStrength of an Empire
p665
I13
ssS'Classics, Vol. 2'
p666
(dp667
VNa Vedui
p668
I100
sVMythic
p669
I67
sVRide With the Saracen
p670
I19
sVBastion
p671
I32
sVAtlas
p672
I135
sVFateful Night
p673
I39
sVRide to Victory
p674
I63
sVFlying Snow
p675
I27
sVSubmariner
p676
I204
sVClock Tower Parade
p677
I43
sVNeverdark
p678
I215
sVRiders
p679
I533
sVAdventure of a Lifetime
p680
I115
sVUndefeated
p681
I36
sVAratta
p682
I141
sVThe Immortals
p683
I23
sVThe Colonel
p684
I89
sVHeaven & Earth
p685
I377
sVSalvation
p686
I48
sVCasablanca
p687
I137
sVDachuur
p688
I22
sVFlameheart
p689
I43
sVKogan
p690
I36
sVStarfall
p691
I96
sVMagika
p692
I2639
ssS'Vanquish'
p693
(dp694
VEvergreen
p695
I341
sVFinal Kingdom 
p696
I144
sVFall of the Fountain World
p697
I2030
sVSiege
p698
I95
sVDangerous
p699
I183
sVNew World Order 
p700
I304
sVStallion
p701
I531
sVFuture Guardian 
p702
I161
sVEnchantress
p703
I472
sVForge 
p704
I81
sVThe Ring of Winter 
p705
I101
sVPegasus
p706
I743
sVHis Brightest Star Was You
p707
I200
sVTurin 
p708
I123
sVInferni 
p709
I146
sVHigh C's
p710
I598
sVVanquish
p711
I1838
ssS'Miracles'
p712
(dp713
VMiracles
p714
I802
sVHeart
p715
I83
sVLost in Las Vegas
p716
I345
sVForever in My Dreams
p717
I24
sVI Love You Forever
p718
I110
sVCompass (Bonus Track) [feat. Merethe Soltvedt]
p719
I1995
sVEyes Closing
p720
I68
sVLux Aeterna
p721
I58
sVMy Freedom (feat. Merethe Soltvedt)
p722
I102
sVNorthern Pastures
p723
I34
sVMen of Honor
p724
I139
sVStay (feat. Merethe Soltvedt)
p725
I126
sVPerfect Love
p726
I60
sVScience
p727
I43
sVBreath of Cold Air
p728
I25
sVColor the Sky
p729
I63
sVFountain of Life
p730
I56
sVSun Gazer
p731
I816
sVCompass
p732
I2815
sVWind Queen
p733
I89
sVEria
p734
I121
ssS'Solaris'
p735
(dp736
VPortals Over Earth - No Choir
p737
I19
sVThe Purifier
p738
I14
sVSpecial Unit
p739
I353
sVSergeant Steel - No Choir
p740
I7
sVCountries Burning
p741
I26
sVCountries Burning - No Choir
p742
I42
sVHard Rain - No Choir
p743
I5
sVStart Again
p744
I18
sVLocating The Core
p745
I19
sVThis Must Be The Mothership
p746
I78
sVLocating The Core - No Choir
p747
I3
sVPortals Over Earth
p748
I388
sVSteel Messenger - No Choir
p749
I25
sVOne By One
p750
I25
sVInvadorz
p751
I93
sVRise Of The Abyss - No Choir
p752
I17
sVThe Purifier - No Choir
p753
I6
sVHard Rain
p754
I7
sVFirst Incident - No Choir
p755
I12
sVInvadorz - No Choir
p756
I9
sVSweet Rampage
p757
I6
sVThe Day The Sky Opened
p758
I49
sVSteel Messenger
p759
I9
sVSergeant Steel
p760
I32
sVThis Must Be The Mothership - No Choir
p761
I8
sVEchoes And Ashes
p762
I197
sVBlood Of The Titan
p763
I37
sVKilling Spree
p764
I35
sVKilling Spree - No Choir
p765
I9
sVMassive Outbreak
p766
I14
sVRise Of The Abyss
p767
I206
sVBlood Of The Titan - No Choir
p768
I26
sVSpecial Unit - No Choir
p769
I571
sVFirst Incident
p770
I186
sVOne By One - No Choir
p771
I11
ssS'Ashes'
p772
(dp773
VBlack Hat
p774
I22
sVMadnophone (FX Only)
p775
I5
sVFragments of Deception
p776
I10
sVCrawlspace
p777
I11
sVFrozen Paths (No Drums)
p778
I1
sVZombie Train (No Drums)
p779
I3
sVStumpy
p780
I3
sVRaven Hill
p781
I5
sVTake Me To Hell
p782
I5
sVFlashes of Terror (No Drums)
p783
I7
sVTwisted Children
p784
I19
sVHorror By Design 1
p785
I7
sVHorror By Design 3
p786
I9
sVHorror By Design 2
p787
I5
sVLondon 1920
p788
I4
sVPoint Of No Return
p789
I7
sVSomething Wicked Lurks
p790
I6
sVSplit Personality
p791
I5
sVFrozen Paths
p792
I3
sVExecutive Decision
p793
I6
sVExhumed
p794
I39
sVMoving Shadows II
p795
I6
sVStumpy (FX Only)
p796
I12
sVHelevator (FX Only)
p797
I4
sVRun For Your Limbs (NC)
p798
I7
sVHelevator
p799
I3
sVSwing-set Murders
p800
I8
sVGreen Hill Massacre
p801
I2
sVBurn Baby (Piano)
p802
I9
sVAshes
p803
I55
sVMadnophone
p804
I6
sVSevere Medication
p805
I2
sVJocelyn Janson
p806
I3
sVSmoke
p807
I11
sVBurn Baby (No Piano)
p808
I44
sVRun For Your Limbs
p809
I2
sVTake Me To Hell (FX Only)
p810
I5
sVThe Chopper
p811
I4
sVFlashes of Terror
p812
I4
sVPhotos in Darkness
p813
I7
sVSurrounding The Church
p814
I4
sVDarkxis
p815
I51
sVCrossword Killer
p816
I9
sVSuburban Legend
p817
I5
sVDeck the Halls with Blood
p818
I9
sVExhumed (No Laughter)
p819
I6
sVZombie Train
p820
I6
sVFinal Corridor
p821
I11
sVTime is Fleeting
p822
I6
sVKiss of Night
p823
I3
ssS'Halloween'
p824
(dp825
VSwing-Set Murders - Original
p826
I7
sVPower of Darkness - Original
p827
I7
sVPossessed Gramophone - Original
p828
I24
sVCemetery Waltz - Original
p829
I185
sVDecimator - Original
p830
I32
sVHelevator - Original
p831
I7
sVCrawlspace - Original
p832
I6
sVOtherworld - Original
p833
I6
sVWaltz of the Willows - Original
p834
I7
sVExhumed - Original
p835
I15
sVCrossword Killer - Original
p836
I4
sVRed Omen - Original
p837
I2
sVShe Rises - Original
p838
I2
sVIt Lives - Original
p839
I1
sV72 Virgins - Original
p840
I11
sVBurn Baby - Original
p841
I7
sVSplit Personality - Original
p842
I3
sVGreen Hill Massacre - Original
p843
I1
sVCome What May - Original
p844
I5
sVDiabolic Clockwork - Original
p845
I14
sVMadnophone - Original
p846
I5
sVZombie Train - Original
p847
I12
sVEvil - Original
p848
I4
sVBlack Assassin - Original
p849
I8
sVThis Is Oh My Dear (feat. Monica Barta) - Original
p850
I14
sVRising Darkness - Original
p851
I4
sVCannibal - Original
p852
I13
sVStumpy - Original
p853
I8
sVGhostly Presence - Original
p854
I4
sVMoving Shadows - Original
p855
I4
sVPhotos in Darkness - Original
p856
I94
sVSomething Wicked Lurks - Original
p857
I4
sVDeath Came Early That Year - Original
p858
I3
sVPane of Darkness - Original
p859
I2
sVDeck the Halls With Blood (feat. Monica Barta) - Original
p860
I15
sVTake Me to Hell - Original
p861
I6
sVMmm Chicken - Original
p862
I10
sVRaven Hill - Original
p863
I3
sVShed My Skin - Original
p864
I2
sVWelcome to Widow Woods - Original
p865
I15
sVTo Die On Halloween (feat. Nick Phoenix) - Original
p866
I18
sVHunter's Moon - Original
p867
I3
sVJocelyn Janson - Original
p868
I4
sVTwisted Children - Original
p869
I4
sVAshes - Original
p870
I4
sVBottomless Pit of Torment - Original
p871
I7
sVFlashes of Terror - Original
p872
I1
sVCalamity - Original
p873
I111
ssS'Open Conspiracy'
p874
(dp875
VAt The Core
p876
I6
sVCorus Grom
p877
I6
sVSindicrat
p878
I4
sVHaiganon
p879
I8
sVPresidents Assassination
p880
I13
sVFrayed Legacy (Instrumental)
p881
I12
sVHaiganon (No Solo Vocal)
p882
I5
sVHaiganon (Instrumental)
p883
I10
sVDreams Collide
p884
I6
sVHope From Darkness
p885
I4
sVOpen Conspiracy
p886
I20
sVDeadzone Five
p887
I11
sVMillenium Justice
p888
I7
sVDreams Collide (Instrumental)
p889
I2
sVBaghdad Underground
p890
I6
sVShadowbreak
p891
I5
sVSecond Source
p892
I4
sVResistance Is Fatal
p893
I10
sVAt The Core (Instrumental)
p894
I4
sVResistance Is Fatal (Instrumental)
p895
I3
sVFrayed Legacy
p896
I7
ssS'Dynasty'
p897
(dp898
VSentius Remix25 - remix
p899
I7
sVBreaking48
p900
I4
sVConquerors66
p901
I7
sVThe Vendetta Conspiracy64
p902
I2
sVBleeding (no choir)25
p903
I6
sVCavaliere78
p904
I12
sVDragon Rider74
p905
I2247
sVBlast the Gates (no choir)20
p906
I5
sVOcean (no choir)10
p907
I7
sVNever Winter (no choir)12
p908
I4
sVBreath of Ran Gor92
p909
I8
sVWeb of Lies (no choir)10
p910
I3
sVKing's Legion (no choir)23
p911
I269
sVDiplomatic Immunity23
p912
I6
sVBlade Fighter61
p913
I5
sVThermopolis (no choir)13
p914
I1
sVShips of the Underworld (alt ending)24
p915
I7
sVChariots of Blood10
p916
I4
sVRed Army27
p917
I20
sVOne Against All (no choir)12
p918
I2
sVChariots of Blood (rock)12
p919
I4
sVTimebomb (no choir)11
p920
I1
sVChopperhead57
p921
I7
sVTimebomb26
p922
I4
sVCoup D'etat21
p923
I5
sVFlameheart (no choir)20
p924
I4
sVBlade Fighter (no choir)11
p925
I9
sVTimebomb (beat only)12
p926
I3
sVElementum (no choir)30
p927
I6
sVWeb of Lies28
p928
I4
sVHeaven & Earth111
p929
I7
sVGlory and Honor25
p930
I16
sVRacketeers41
p931
I27
sVHouse of Fire87
p932
I13
sVChariots of Blood60
p933
I4
sVSentius Remix (no choir)10 - remix
p934
I8
sVChariots of Blood (no choir)11
p935
I4
sVArmada (no choir)52
p936
I8
sVThermopolis69
p937
I16
sVShips of the Underworld178
p938
I16
sVBlast the Gates126
p939
I7
sVDemon Rider83
p940
I5
sVOne Against All30
p941
I3
sVSpirit of Champions77
p942
I246
sVNever Winter23
p943
I5
sVThe Fly From China26
p944
I6
sVProcession16
p945
I10
sVLove & Loss18
p946
I37
sVBreath of Ran Gor (no choir)21
p947
I11
sVCavaliere (no choir)18
p948
I12
sVArmada753
p949
I19
sVHero18
p950
I3
sVProcession (no drums)
p951
I5
sVDynasty (no choir)28
p952
I12
sVFalse Flag Op54
p953
I5
sVSentius (no choir)11
p954
I3
sVRacketeers (rock)10
p955
I9
sVLove & Loss (no synth)10
p956
I32
sVKingdom Skies36
p957
I4
sVDragon Rider (beat only)13
p958
I52
sVFight the Darkness104
p959
I6
sVEpilogue
p960
I5
sVBreaking (no choir)10
p961
I19
sVElementum232
p962
I9
sVTyrianis147
p963
I11
sVThe Vendetta Conspira10
p964
I5
sVFight the Darkness (no choir)23
p965
I6
sVKing's Legion89
p966
I6
sVShips of the Underworld (no choir)29
p967
I3
sVPax
p968
I14
sVInstruments of War (no choir)10
p969
I3
sVHero (no choir)12
p970
I6
sVSpirit of Champions (no choir)12
p971
I46
sVThe Brave and Mighty22
p972
I10
sVFalse Flag Op (no choir)10
p973
I2
sVOcean18
p974
I7
sVBlack Assassin76
p975
I4
sVBleeding121
p976
I6
sVHouse of Fire (no choir)11
p977
I5
sVChopperhead (no choir)9
p978
I4
sVTyrianis (no choir)27
p979
I5
sVShips of the Underworld (alt ending, no choir)23
p980
I6
sVDynasty317
p981
I22
sVSun Goddess17
p982
I7
sVThe Truth Unravels II17
p983
I20
sVRed Army (no choir)10
p984
I5
sVDeep Voyage22
p985
I5
sVThe Truth Unravels II10
p986
I35
sVInstruments of War27
p987
I5
sVFlameheart81
p988
I8
sVDynasty (solo vocal)35
p989
I10
sVBlack Assassin (no choir)12
p990
I404
sVMagika30
p991
I22
sVSentius58
p992
I3
sVConquerors (no choir)13
p993
I3
sVDemon Rider (no choir)19
p994
I3
sVPax (no choir)10
p995
I2
sVZen Killer16
p996
I9
sVMagika (no choir)11
p997
I29
ssS'Volume One'
p998
(dp999
VNorth Country orc
p1000
I12
sVLord Of Chaos
p1001
I4
sVSuper Strength 2
p1002
I18
sVDawn Of War
p1003
I7
sVLife Of A Legend
p1004
I3
sVTwo Steps From Heaven
p1005
I11
sVCaptain Universe
p1006
I4
sVEvil Supremacy
p1007
I5
sVLost In Asia
p1008
I8
sVCity Of Malice
p1009
I7
sVExodus orc
p1010
I3
sVBigger than Kong
p1011
I12
sVBlack Winged Messenger
p1012
I3
sVFront Line orc
p1013
I3
sVStraw Man
p1014
I9
sVTwo Steps From Hell orc
p1015
I13
sVCursed!
p1016
I4
sVSpirit Of Death
p1017
I6
sVThe Truth Unravels
p1018
I9
sVEternal Love
p1019
I12
sVWind Queen
p1020
I33
sVAcross Continents
p1021
I2
sVProtector Of The Skies
p1022
I3
sVBattle Of Dark vs Light
p1023
I13
sVVast Conspiracy
p1024
I4
sVFatespinner Drums
p1025
I7
sVSouls Feast
p1026
I10
sVExtinction Level Event
p1027
I1
sVThe Legend of Aramis
p1028
I5
sVBlack Flowers (Orchestral)
p1029
I9
sVBirth Of Power
p1030
I7
sVPath Less Travelled (Orchestral)
p1031
I2
sVEternal Conflict
p1032
I4
sVUnfolding Armies orc
p1033
I4
sVThe Descending Storm orc
p1034
I2
sVChronicles Of A Hero
p1035
I1
sVDominius orc
p1036
I9
sVDire Crisis
p1037
I8
sVRise Of Evil
p1038
I5
sVReturn To Base
p1039
I9
sVSpirit Of Death orc
p1040
I6
sVHorrors And Enchantments
p1041
I4
sVExtinction Level Event orc
p1042
I5
sVUndying Faith
p1043
I6
sVSuper Strength orc
p1044
I10
sVTrafficking
p1045
I4
sVInterceptors Duel
p1046
I7
sVFrom The Abyss orc
p1047
I7
sVPath Less Travelled
p1048
I15
sVThe Summoning orc
p1049
I6
sVBorn Of Ash orc
p1050
I7
sVFireflies
p1051
I5
sVTsunamis Risismus
p1052
I4
sVFront Line
p1053
I6
sVBloodlust orc
p1054
I6
sVNecromantics
p1055
I8
sVBattle At Sea
p1056
I3
sVExodus
p1057
I6
sVTwo Steps From Hell
p1058
I728
sVFistfulla Drums
p1059
I4
sVSeason Of Fate
p1060
I4
sVBirth Of Power orc
p1061
I7
sVGuns And Oil
p1062
I7
sVAftershock
p1063
I9
sVEternal Conflict 2
p1064
I4
sVThe Descending Storm
p1065
I4
sVBorn Of Ash
p1066
I11
sVEternal Conflict (Orchestral)
p1067
I11
sVAftershock (Orchestral)
p1068
I4
sVHeavenly Lights
p1069
I4
sVAdventures Of Enchantment
p1070
I7
sVCatch 666
p1071
I9
sVPeacekeepers orc
p1072
I4
sV01 Super Strength
p1073
I42
sVSerbian Suns
p1074
I4
sVTemple Of Damnation orc
p1075
I2
sVNorth Country
p1076
I10
sVOver The Pass orc
p1077
I3
sV01 Breath Of Cold Air
p1078
I6
sVDepartment Of Deception
p1079
I4
sVOver The Pass
p1080
I7
sVSecrets In Blood
p1081
I4
sVProphecies (Orchestral)
p1082
I4
sVThe Summoning
p1083
I10
sVRise Of Evil orc
p1084
I3
sVProphecies
p1085
I26
sVSecrets In Blood (Orchestral)
p1086
I3
sVCrimson Death
p1087
I4
sVFamous Year
p1088
I8
sVFrom The Abyss
p1089
I13
sVDominius
p1090
I3
sVUnfolding Armies
p1091
I3
sVTrafficking (Orchestral)
p1092
I3
sVChild's Play
p1093
I2
sVPeacekeepers
p1094
I9
sVBloodlust
p1095
I6
sVPlaying With Fire
p1096
I5
sVBlack Flowers
p1097
I8
sVTemple Of Damnation
p1098
I3
ssS'Orion'
p1099
(dp1100
VRebirth
p1101
I641
sVRebirth (instrumental)
p1102
I20
sVRebirth (no vocals, no solos)
p1103
I17
sVAeterna
p1104
I21
sVOrion (short version 1)
p1105
I5
sVOrion (short version 2)
p1106
I3
sVAeterna (no choir)
p1107
I3
sVAeterna (no choir, no solo)
p1108
I6
sVOrion
p1109
I61
sVRain Of Light
p1110
I12
sVOrion (no solos, no choir, no vocals)
p1111
I7
ssS'Legacy'
p1112
(dp1113
VArchangel
p1114
I45
sVFor The Win
p1115
I124
sVMy Freedom
p1116
I33
sVHeart of Courage
p1117
I102
sVEverlasting
p1118
I18
sVProtectors of The Earth
p1119
I39
sVSons of War
p1120
I12
sVDragon Rider
p1121
I428
sVSkyworld
p1122
I46
sVWelcome to Amaria
p1123
I12
sVBlackheart
p1124
I62
sVVengeance
p1125
I8
sVAfter The Fall
p1126
I16
sVFill My Heart
p1127
I25
sVTo Glory
p1128
I32
sVBlack Blade
p1129
I33
sVStrength of a Thousand Men
p1130
I222
sVWinterspell
p1131
I32
sVNorwegian Pirat
p1132
I33
sVTitan Dream
p1133
I22
sVOcean Kingdom
p1134
I12
sVJump!
p1135
I43
sVHunter's Moon
p1136
I12
ssS'Shadows and Nightmares'
p1137
(dp1138
VEtergheros Charghela (Sacrificium) - no choir
p1139
I2
sVEyes Wide Open - choir
p1140
I4
sV[Bonus Track] Cemetery Waltz - choir
p1141
I9
sVSuperFX (Hit) Orchestra Hit VII
p1142
I11
sVHeartpounder
p1143
I2
sVThe Return of Life - choir
p1144
I4
sVInhuman Growth - no choir
p1145
I7
sVBottomless Pit of Torment - no choir
p1146
I7
sVNocturnal Prey - no choir
p1147
I2
sVDemonic Procession - no choir
p1148
I2
sVEvac
p1149
I3
sVLord of Death
p1150
I2
sVEvil! (part 1) - choir
p1151
I4
sVSuperFX (Static) - Fear Factor 100
p1152
I4
sVSuperFX (Hit) Orchestra Hit X
p1153
I9
sVShe Rises - choir
p1154
I4
sVDeath Grip 2
p1155
I2
sVSuperFX (Hit) Orchestra Hit XIII
p1156
I3
sVSuperFX (Hit) Orchestra Hit II
p1157
I14
sVSuperFX (Hit) Orchestra Hit IV
p1158
I9
sVSuperFX (Hit) Orchestra Hit VI
p1159
I9
sVDoomsday - hits only
p1160
I8
sVSuperFX (Hit) Orchestra Hit IX
p1161
I12
sVCome What May
p1162
I10
sVInhuman Growth - choir
p1163
I8
sVRitual of Resurrection (first hit only)
p1164
I5
sVTons of TNT - no choir
p1165
I6
sVDemon Child
p1166
I7
sVGhost Town
p1167
I13
sVBetrayed - choir
p1168
I7
sVAwakening the Beast - no choir
p1169
I1
sVFace of Dhomor Devah - no choir
p1170
I3
sVRecon J74
p1171
I10
sVDiscovery of Land - no choir
p1172
I3
sVAwakening the Beast - choir
p1173
I3
sVUnholy Requiem - choir
p1174
I3
sVThe Return of Life - no choir
p1175
I7
sVTick Tock Goes the Clock
p1176
I2
sVApproaching Tsunami - no choir
p1177
I4
sVRitual of Resurrection - no choir
p1178
I2
sVRising Darkness
p1179
I2
sVBottomless Pit of Torment - choir
p1180
I3
sVSuperFX (Static + Pounding) - Toxic Air
p1181
I7
sVUndead Chamber
p1182
I2
sVFace of Dhomor Devah - choir
p1183
I3
sVLeagues
p1184
I2
sVGhostly Presence - no choir
p1185
I18
sVDeathhook
p1186
I4
sVSuperFX (Hit + Static) - System Failure
p1187
I3
sVForbidden
p1188
I3
sVEvil! (part 2) - no choir
p1189
I3
sVApproaching Tsunami - choir
p1190
I3
sVHammer of Doom
p1191
I2
sVSuperFX (Hit) Orchestra Hit XI
p1192
I6
sVLoch Ness
p1193
I2
sVSurveilance
p1194
I2
sVEvil! (part 1) - no choir
p1195
I6
sVSmartbomb
p1196
I3
sVSuperFX (Hit) Orchestra Hit VIII
p1197
I10
sVTons of TNT - choir
p1198
I9
sVShe Rises - no choir
p1199
I1
sVInfinity
p1200
I6
sVPrecinct Breach
p1201
I3
sVSuperFX (Rise) - Hide & Seek
p1202
I5
sVSatellite Photos
p1203
I4
sVFound at the Lake
p1204
I3
sVEyes Wide Open - no choir
p1205
I4
sVDoomsday - choir
p1206
I10
sVPossessed Village
p1207
I2
sVMessages Across Time
p1208
I1
sVUnholy Requiem - no choir
p1209
I8
sVSuperFX (Rise) - Crawling Invasion
p1210
I4
sVDemonic Procession - choir
p1211
I3
sVThe last 100
p1212
I5
sVEmpire of the Mind
p1213
I6
sVSuperFX (Hit) Orchestra Hit V
p1214
I22
sVGhostly Presence - choir
p1215
I1
sVCome What May - no perc
p1216
I5
sVSuperFX (Hit) Orchestra Hit XII
p1217
I7
sVNocturnal Prey - choir
p1218
I6
sVSuperFX (Hit) Orchestra Hit I
p1219
I7
sVEvil! (part 2) - choir
p1220
I3
sVSuperFX (Static + Rise) - Alien Encounter
p1221
I3
sVBetrayed - no choir
p1222
I3
sVCrisis Gone Bad
p1223
I2
sVEtergheros Charghela (Sacrificium) - choir
p1224
I3
sVExtreme Crisis
p1225
I4
sVDeath Grip
p1226
I1
sVSuperFX (Rise) - Jungle Swarm
p1227
I6
sVJustification
p1228
I4
sVSuperFX (Hit + Rise) - Ignition
p1229
I23
sVSuperFX (Static) - Paralyzed by Fear
p1230
I8
sVSuperFX (Hit) Orchestra Hit III
p1231
I8
sVDiscovery of Land - choir
p1232
I10
sVMountains of Madness
p1233
I4
sV[Bonus Track] Cemetery Waltz - no choir
p1234
I7
sVSuperFX (Rise) - Gateway to Oblivion
p1235
I4
sVOverheated
p1236
I13
sVRitual of Resurrection - choir
p1237
I4
sVDoomsday - no choir
p1238
I8
ssS'Nero'
p1239
(dp1240
VArchangel
p1241
I4486
sVFive Finger Fillet
p1242
I10
sVKing Louie Kablooey
p1243
I17
sVFatal Fury
p1244
I192
sVOz No More
p1245
I7
sVImmortal Avenger
p1246
I10
sVOne Way Out
p1247
I31
sVTower Of Mischief
p1248
I7
sVCrack In Time
p1249
I21
sVMagic Of Love
p1250
I234
sVEverlasting
p1251
I51
sVExodus
p1252
I65
sVSalvation
p1253
I15
sVCaradhras
p1254
I10
sVAm I Not Human
p1255
I55
sVLotus Mother
p1256
I9
sVDestructo
p1257
I35
sVIt Lives
p1258
I7
sVAesir
p1259
I9
sVMountains From Water
p1260
I9
sVStrength Of A Thousand Men
p1261
I24755
sVFear The Resurrection
p1262
I6
sVUndefeated
p1263
I22
sVBirth Of A Hero
p1264
I70
sVThe Devil Plays A Smoking Trumpet
p1265
I21
sVRide To Victory
p1266
I82
sVThe Last Stand
p1267
I62
sVUnexplained Forces
p1268
I17
sVDestiny Will Wait
p1269
I13
sVSanctuary Is Lost
p1270
I5
sVArea 51
p1271
I14
sVAllegro Agitato
p1272
I20
sVCasablanca
p1273
I41
sVUnited We Stand \u2013 Divided We Fall
p1274
I928
sVMy Freedom
p1275
I34
sVTo Glory
p1276
I395
sVNero
p1277
I398
sVStarfall
p1278
I21
sVDisappear
p1279
I1189
ssS'Amaria'
p1280
(dp1281
VMagic Entrance
p1282
I30
sVMore than Friends
p1283
I63
sVChase the Light
p1284
I37
sVWelcome to Amaria
p1285
I57
sVNew Machine
p1286
I49
sVCompanions
p1287
I23
sVA Blanket of Snow
p1288
I63
sVVengeance
p1289
I221
sVMachine Dreams
p1290
I24
sVRiders
p1291
I107
sVAdventures of Gillock
p1292
I229
ssS'All Drums Go to Hell'
p1293
(dp1294
Vsudden strike
p1295
I10
sVdisturbing power
p1296
I9
sVnuclear meltdown
p1297
I5
sVguerilla raid (instrumental) - instrumental
p1298
I4
sVoedipus raax
p1299
I5
sVfists of steel
p1300
I11
sVsecret island
p1301
I4
sVkamakura
p1302
I5
sVhidden identity
p1303
I2
sVdesperate protocol
p1304
I5
sVfreedom army
p1305
I12
sVtriassic
p1306
I4
sViridium factor
p1307
I3
sVextinction
p1308
I7
sVforeign identity
p1309
I3
sVhellraiser brigade
p1310
I9
sVuganda and south
p1311
I12
sVsleepwalker
p1312
I6
sVbarrage of noise
p1313
I5
sVultimate countdown
p1314
I2
sVdesert runner
p1315
I3
sVpath of destruction
p1316
I5
sVtagged rendezvous
p1317
I5
sVnorwegian devil
p1318
I2
sVskull crusher
p1319
I3
sVarmored cars
p1320
I16
sVcarnival from hell
p1321
I10
sVindustrial mayhem
p1322
I8
sVrocket hammer
p1323
I3
sVoperation sandstorm (instrumental) - instrumental
p1324
I5
sVflight from the monastery
p1325
I5
sVcode of honor
p1326
I53
sVbuilding jumper
p1327
I3
sVrampant carnage
p1328
I3
sVhyperbug
p1329
I2
sVshoot to kill
p1330
I5
sVdiabolic clockwork
p1331
I72
sVtoxic rain
p1332
I3
sVbionics
p1333
I4
sVjungle fever
p1334
I3
sVimages of horror
p1335
I4
sVhara-kiri
p1336
I3
sVsmoke em
p1337
I4
sVsecond coming
p1338
I1
sVjun mai
p1339
I4
sVwitchburner
p1340
I3
sVdeath came early that year
p1341
I6
sVoperation sandstorm
p1342
I9
sVwave of death
p1343
I2
sVimpending fury
p1344
I3
sVdance with the devil
p1345
I2
sVvoltenstein
p1346
I4
sVborder patrol
p1347
I6
sVemperor's assassin
p1348
I4
sVzoologic stampede
p1349
I3
sVoff the cliff
p1350
I3
sVguerilla raid
p1351
I7
sVlord of two lands
p1352
I2
sVnuclear meltdown (electronica)
p1353
I4
sVraging horde
p1354
I3
sVshoot to kill (instrumental) - instrumental
p1355
I9
sVrun like hell
p1356
I5
sVchasing the dragon
p1357
I6
sVterror tunnels
p1358
I9
ssS'Battlecry Anthology'
p1359
(dp1360
VRed Tower (Orchestral)
p1361
I22
sVFreedom Ship (Instrumental)
p1362
I76
sVRise Above (Orchestral)
p1363
I21
sVStar Sky (Orchestral)
p1364
I269
sVStar Sky (Instrumental)
p1365
I306
sVSariel (Instrumental)
p1366
I25
sVAcross the Blood Water (Instrumental)
p1367
I1309
sVBlackout (Orchestral)
p1368
I41
sVFreedom Ship (Orchestral)
p1369
I30
sVStormkeeper (Orchestral)
p1370
I25
sVBattleborne (Orchestral)
p1371
I54
sVUltraground (Orchestral)
p1372
I22
sVSariel (Orchestral)
p1373
I25
sVOutpost (Orchestral)
p1374
I17
sVNo Honor in Blood (Instrumental)
p1375
I25
sVNo Honor in Blood (Orchestral)
p1376
I22
sVAcross the Blood Water (Orchestral)
p1377
I214
sVVictory (Instrumental)
p1378
I845
sVStronger Faster Braver (Instrumental)
p1379
I31
sVUnforgiven (Orchestral)
p1380
I27
sVBlackout (Instrumental)
p1381
I156
sVAmaria Silverbird (Orchestral)
p1382
I286
sVRelease Me (Orchestral)
p1383
I30
sVRelease Me (Instrumental)
p1384
I35
sVSpellcaster (Instrumental)
p1385
I17
sVUltraground (Instrumental)
p1386
I30
sVLast of the Light (Orchestral)
p1387
I25
sVStronger Faster Brave (Orchestral)
p1388
I26
sVSpellcaster (Orchestral)
p1389
I18
sVCannon in D Minor (Orchestral)
p1390
I56
sVCannon in D Minor (Instrumental)
p1391
I113
sVOutpost (Instrumental)
p1392
I22
sVRise Above (Instrumental)
p1393
I24
sVUnforgiven (Instrumental)
p1394
I32
sVWolf King (Orchestral)
p1395
I64
sVLast of the Light (Instrumental)
p1396
I45
sVVictory (Orchestral)
p1397
I488
sVNone Shall Live (Orchestral)
p1398
I30
sVStormkeeper (Instrumental)
p1399
I23
sVWolf King (Instrumental)
p1400
I66
sVRed Tower (Instrumental)
p1401
I22
ssS'Speed of Sound'
p1402
(dp1403
VSpeed of Sound
p1404
I10
sVImperia
p1405
I5
sVRaxez 19
p1406
I5
sVThundersuit
p1407
I3
sVDropspace
p1408
I4
sVAnthem of the Ruins
p1409
I5
sVPlanet-Ize
p1410
I8
sVBattlestar Rising
p1411
I5
sVCountdown to Affinity
p1412
I3
sVGods in the Cloud
p1413
I9
sVVanguard
p1414
I8
sVLow G Mission
p1415
I5
sVHall of Heroes
p1416
I4
sVMechanize
p1417
I6
sVRedspace
p1418
I6
sVDepthx
p1419
I10
sVDunecraft
p1420
I5
sVSplitstar
p1421
I8
sVBird Planet
p1422
I7
sVRise of the Father
p1423
I6
ss.