(dp0
V\u9b54\u6770\u5ea7
p1
(dp2
V\u4e54\u514b\u53d4\u53d4
p3
I8316
sV\u82b1\u6d77
p4
I25215
sV\u9b54\u672f\u5148\u751f
p5
I6372
sV\u86c7\u821e
p6
I6600
sV\u7ed9\u6211\u4e00\u9996\u6b4c\u7684\u65f6\u95f4
p7
I23919
sV\u9f99\u6218\u9a91\u58eb
p8
I12087
sV\u65f6\u5149\u673a
p9
I12732
sV\u6d41\u6d6a\u8bd7\u4eba
p10
I6182
sV\u5170\u4ead\u5e8f
p11
I14296
sV\u8bf4\u597d\u7684\u5e78\u798f\u5462
p12
I32006
sV\u7a3b\u9999
p13
I61377
ssV\u9ec4\u91d1\u7532EP
p14
(dp15
V\u83ca\u82b1\u53f0(\u6770\u4f26\u94a2\u7434\u6f14\u594f\u7248)
p16
I1931
sV\u9ec4\u91d1\u7532
p17
I8196
ssV\u970d\u5143\u7532EP
p18
(dp19
V\u732e\u4e16 (Live) - live
p20
I5694
sV\u970d\u5143\u7532
p21
I20511
ssV\u8de8\u65f6\u4ee3
p22
(dp23
V\u7231\u7684\u98de\u884c\u65e5\u8bb0
p24
I13118
sV\u96e8\u4e0b\u4e00\u6574\u665a
p25
I21739
sV\u563b\u54c8\u7a7a\u59d0
p26
I4934
sV\u8de8\u65f6\u4ee3
p27
I7794
sV\u8bf4\u4e86\u518d\u89c1
p28
I24833
sV\u6211\u843d\u6cea \u60c5\u7eea\u96f6\u788e
p29
I13486
sV\u514d\u8d39\u6559\u5b66\u5f55\u50cf\u5e26
p30
I7483
sV\u70df\u82b1\u6613\u51b7
p31
I32147
sV\u597d\u4e45\u4e0d\u89c1
p32
I7864
sV\u81ea\u5bfc\u81ea\u6f14
p33
I10504
sV\u8d85\u4eba\u4e0d\u4f1a\u98de
p34
I15945
ssV\u53f6\u60e0\u7f8e
p35
(dp36
V\u53cc\u5200
p37
I14284
sV\u540c\u4e00\u79cd\u8c03\u8c03
p38
I11092
sV\u4ee5\u7236\u4e4b\u540d
p39
I93291
sV\u4e09\u5e74\u4e8c\u73ed
p40
I23961
sV\u5979\u7684\u776b\u6bdb
p41
I17087
sV\u4f60\u542c\u5f97\u5230
p42
I27952
sV\u6674\u5929
p43
I1748461
sV\u7231\u60c5\u60ac\u5d16
p44
I13728
sV\u4e1c\u98ce\u7834
p45
I30137
sV\u61e6\u592b
p46
I10180
sV\u68af\u7530
p47
I14176
ssV\u5341\u4e8c\u65b0\u4f5c
p48
(dp49
V\u56db\u5b63\u5217\u8f66
p50
I5670
sV\u50bb\u7b11
p51
I6100
sV\u7ea2\u5c18\u5ba2\u6808
p52
I14041
sV\u68a6\u60f3\u542f\u52a8
p53
I7745
sV\u4e4c\u514b\u4e3d\u4e3d
p54
I13733
sV\u5927\u7b28\u949f
p55
I10335
sV\u6bd4\u8f83\u5927\u7684\u5927\u63d0\u7434
p56
I5388
sV\u624b\u8bed
p57
I7703
sV\u516c\u516c\u504f\u5934\u75db
p58
I7167
sV\u7231\u4f60\u6ca1\u5dee
p59
I7140
sV\u54ea\u91cc\u90fd\u662f\u4f60
p60
I12904
sV\u660e\u660e\u5c31
p61
I25173
ssVPartners \u62cd\u6863
p62
(dp63
V\u5200\u9a6c\u65e6
p64
I2631
sV\u591c\u7a7a\u7684\u7cbe\u7075
p65
I349
sV\u4e0a\u6d77\u4e00\u4e5d\u56db\u4e09
p66
I1270
sV\u843d\u96e8\u58f0
p67
I251
sV\u80e1\u540c\u91cc\u6709\u53ea\u732b
p68
I480
sV\u7535\u706f\u6ce1
p69
I143
sV\u7231\u5728\u897f\u5143\u524d
p70
I1144
sV\u53cd\u65b9\u5411\u7684\u949f
p71
I1033
sV\u4f60\u6bd4\u4ece\u524d\u5feb\u4e50
p72
I254
sV\u52a8\u5fc3
p73
I296
sV\u5a18\u5b50
p74
I592
sV\u7981\u6b62\u60b2\u4f24
p75
I290
sV\u7535\u706f\u6ce1 II
p76
I203
ssV\u5bfb\u627e\u5468\u6770\u4f26
p77
(dp78
V\u8f68\u8ff9
p79
I48951
sV\u65ad\u4e86\u7684\u5f26
p80
I20025
sV\u8f68\u8ff9(\u4f34\u594f)
p81
I882
sV\u65ad\u4e86\u7684\u5f26(\u4f34\u594f)
p82
I553
ssVJay \u540c\u540d\u4e13\u8f91
p83
(dp84
V\u5b8c\u7f8e\u4e3b\u4e49
p85
I7941
sV\u53ef\u7231\u5973\u4eba
p86
I32756
sV\u9ed1\u8272\u5e7d\u9ed8
p87
I16322
sV\u661f\u6674
p88
I21473
sV\u53cd\u65b9\u5411\u7684\u949f
p89
I19162
sV\u9f99\u5377\u98ce
p90
I30130
sV\u5a18\u5b50
p91
I10138
sV\u6597\u725b
p92
I8749
sV\u4f0a\u65af\u5766\u5821
p93
I7457
sV\u5370\u7b2c\u5b89\u8001\u6591\u9e20
p94
I19552
ssV\u5468\u6770\u4f26\u7684\u5e8a\u8fb9\u6545\u4e8b
p95
(dp96
VNow You See Me
p97
I26033
sV\u4e0d\u8be5(with aMEI)
p98
I49518
sV\u7231\u60c5\u5e9f\u67f4
p99
I37103
sV\u8bf4\u8d70\u5c31\u8d70
p100
I31478
sV\u571f\u8033\u5176\u51b0\u6dc7\u6dcb
p101
I27970
sV\u544a\u767d\u6c14\u7403
p102
I335847
sV\u4e00\u70b9\u70b9
p103
I50375
sV\u82f1\u96c4
p104
I20822
sV\u524d\u4e16\u60c5\u4eba
p105
I36533
sV\u5e8a\u8fb9\u6545\u4e8b
p106
I64476
ssV\u60ca\u53f9\u53f7
p107
(dp108
V\u6c34\u624b\u6015\u6c34
p109
I6390
sV\u60ca\u53f9\u53f7
p110
I7602
sV\u4f60\u597d\u5417
p111
I13042
sV\u8ff7\u9b42\u66f2
p112
I10542
sV\u4e16\u754c\u672a\u672b\u65e5
p113
I7111
sVMine Mine
p114
I11914
sV\u8d85\u8dd1\u5973\u795e
p115
I7980
sV\u7597\u4f24\u70e7\u8089\u7cbd
p116
I10315
sV\u7434\u4f24
p117
I11964
sV\u516c\u4e3b\u75c5
p118
I12763
sV\u76ae\u5f71\u620f
p119
I7053
ssS'Fantasy Plus'
p120
(dp121
V\u4f60\u6bd4\u4ece\u524d\u5feb\u4e50
p122
I10864
sV\u4e16\u754c\u672b\u65e5
p123
I30394
sV\u8717\u725b
p124
I23264
ssS'Initial J'
p125
(dp126
V\u5fcd\u8005
p127
I1276
sV\u53cc\u622a\u68cd
p128
I1229
sV\u53cc\u5200
p129
I1156
sV\u9ed1\u8272\u5e7d\u9ed8
p130
I1395
sV\u4e00\u8def\u5411\u5317
p131
I2973
sV\u4ee5\u7236\u4e4b\u540d
p132
I1716
sV\u6700\u540e\u7684\u6218\u5f79
p133
I1405
sV\u53ef\u7231\u5973\u4eba
p134
I1313
sV\u98d8\u79fb
p135
I2366
sV\u4e03\u91cc\u9999
p136
I1673
sV\u5916\u5a46
p137
I1396
sV\u4e1c\u98ce\u7834
p138
I1450
ssV\u82f1\u96c4
p139
(dp140
V\u82f1\u96c4
p141
I75316
ssV\u516b\u5ea6\u7a7a\u95f4
p142
(dp143
V\u7237\u7237\u6ce1\u7684\u8336
p144
I14200
sV\u534a\u517d\u4eba
p145
I15521
sV\u7c73\u5170\u7684\u5c0f\u94c1\u5320
p146
I12085
sV\u5206\u88c2(\u79bb\u5f00)
p147
I18296
sV\u6700\u540e\u7684\u6218\u5f79
p148
I17745
sV\u706b\u8f66\u53e8\u4f4d\u53bb
p149
I12234
sV\u6697\u53f7
p150
I29017
sV\u56de\u5230\u8fc7\u53bb
p151
I38929
sV\u9f99\u62f3
p152
I14714
sV\u534a\u5c9b\u94c1\u76d2
p153
I42899
ssV\u4e0d\u80fd\u8bf4\u7684\u79d8\u5bc6 \u7535\u5f71\u539f\u58f0\u5e26
p154
(dp155
VThe Swan
p156
I1280
sVRide With Me
p157
I1426
sV\u5973\u5b69\u522b\u4e3a\u6211\u54ed\u6ce3
p158
I1185
sVFlash Back
p159
I1306
sV\u7434\u623f
p160
I1702
sVOpening
p161
I1584
sV\u6de1\u6c34\u6d77\u8fb9
p162
I3610
sVSecret (\u52a0\u957f\u5feb\u677f)
p163
I4358
sV\u4e0d\u80fd\u8bf4\u7684\u79d8\u5bc6
p164
I51624
sV\u6597\u7434
p165
I2279
sV\u6e58\u4f26\u5c0f\u96e8\u56db\u624b\u8054\u5f39
p166
I1701
sV\u4e0e\u7236\u5171\u821e
p167
I1058
sV\u65e9\u64cd
p168
I2439
sV\u5c0f\u96e8\u5199\u7acb\u53ef\u767d\u2160
p169
I3385
sV\u5c0f\u96e8\u5199\u7acb\u53ef\u767d\u2161
p170
I3033
sV\u6674\u5929\u5a03\u5a03
p171
I4235
sVSecret (\u6162\u677f)
p172
I1627
sV\u7236\u4e0e\u5b50
p173
I1617
sVFirst Kiss
p174
I2229
sV\u811a\u8e0f\u8f66
p175
I4541
sVAngel
p176
I2865
sV\u60c5\u4eba\u7684\u773c\u6cea
p177
I2025
sV\u8def\u5c0f\u96e8
p178
I5537
sVEnding
p179
I1674
sV\u963f\u90ce\u4e0e\u963f\u5b9d
p180
I1646
ssV\u5929\u53f0 \u7535\u5f71\u539f\u58f0\u5e26
p181
(dp182
V\u6c14\u52bf
p183
I194
sV\u65e0\u52a9
p184
I160
sV\u70ed\u8840\u7801\u5934
p185
I165
sV\u5144\u5f1f\u7684\u5b89\u6170
p186
I252
sV\u5c4b\u9876\u4e0a\u7684\u613f\u671b
p187
I305
sV\u60c5\u4eba\u6e56\u591c\u5e02
p188
I436
sV\u6ce2\u7237
p189
I2156
sV\u5a01\u5c11\u7684\u9677\u9631
p190
I188
sVStrike
p191
I146
sV\u5929\u53f0\u7684\u6708\u5149 (\u5409\u4ed6\u7248)
p192
I1050
sV\u7f8e\u666f
p193
I336
sV\u54ea\u91cc\u90fd\u662f\u4f60
p194
I1455
sV\u9f99\u95e8\u6fa1\u5802
p195
I306
sV\u6c34\u7ba1\u7684\u53cb\u60c5
p196
I566
sV\u9ab0\u5b50
p197
I137
sV\u7af9\u7aff\u821e
p198
I262
sV\u6d6a\u5b50\u818f
p199
I230
sV\u4fdd\u9f84\u7537\u5b69
p200
I398
sV\u5929\u53f0
p201
I1519
sV\u7f8e\u672f\u9986
p202
I261
sV\u60b2\u5267\u7684\u5e8f\u5e55
p203
I256
sVGoodbye
p204
I330
sV\u94b1\u96be\u8d5a
p205
I862
sV\u635e\u91d1\u9c7c
p206
I185
sV\u4ea1\u547d\u8ffd\u9010
p207
I219
sV\u82f1\u96c4\u4e4b\u6b4c
p208
I224
sV\u901b\u591c\u5e02
p209
I278
sV\u5feb\u95e8\u6162\u821e
p210
I903
sV\u963f\u90ce\u7684\u7ae5\u5e74
p211
I125
sV\u5927\u660e\u661f
p212
I1429
sV\u72d7\u4ed4\u821e
p213
I1432
sV\u6253\u67b6\u821e
p214
I1306
sV\u5929\u53f0\u7684\u6708\u5149
p215
I3379
sVYou're My Everything
p216
I397
sVIf
p217
I732
ssV\u6211\u5f88\u5fd9
p218
(dp219
V\u5f69\u8679
p220
I61868
sV\u9752\u82b1\u74f7
p221
I34814
sV\u725b\u4ed4\u5f88\u5fd9
p222
I10951
sV\u9633\u5149\u5b85\u7537
p223
I12388
sV\u65e0\u53cc
p224
I8311
sV\u626f
p225
I7262
sV\u6211\u4e0d\u914d
p226
I26001
sV\u6700\u957f\u7684\u7535\u5f71
p227
I32207
sV\u84b2\u516c\u82f1\u7684\u7ea6\u5b9a
p228
I40620
sV\u751c\u751c\u7684
p229
I35061
ssV\u8303\u7279\u897f
p230
(dp231
V\u5fcd\u8005
p232
I16779
sV\u5b89\u9759
p233
I52194
sV\u5f00\u4e0d\u4e86\u53e3
p234
I48199
sV\u5bf9\u4e0d\u8d77
p235
I13796
sV\u5a01\u5ec9\u53e4\u5821
p236
I15073
sV\u7238\u6211\u56de\u6765\u4e86
p237
I11541
sV\u7b80\u5355\u7231
p238
I41436
sV\u4e0a\u6d77\u4e00\u4e5d\u56db\u4e09
p239
I19265
sV\u7231\u5728\u897f\u5143\u524d
p240
I27879
sV\u53cc\u622a\u68cd
p241
I23052
ssV\u4f9d\u7136\u8303\u7279\u897f
p242
(dp243
V\u591c\u7684\u7b2c\u4e03\u7ae0
p244
I43112
sV\u767d\u8272\u98ce\u8f66
p245
I18498
sV\u8ff7\u8fed\u9999
p246
I13132
sV\u5fc3\u96e8
p247
I14563
sV\u7ea2\u6a21\u4eff
p248
I14018
sV\u9000\u540e
p249
I27822
sV\u672c\u8349\u7eb2\u76ee
p250
I16194
sV\u542c\u5988\u5988\u7684\u8bdd
p251
I39657
sV\u5343\u91cc\u4e4b\u5916
p252
I19251
sV\u83ca\u82b1\u53f0
p253
I16078
ssV\u54ce\u5466\uff0c\u4e0d\u9519\u54e6
p254
(dp255
V\u600e\u4e48\u4e86
p256
I9338
sV\u6211\u8981\u590f\u5929
p257
I10022
sV\u4e00\u53e3\u6c14\u5168\u5ff5\u5bf9
p258
I12355
sV\u5929\u6daf\u8fc7\u5ba2
p259
I15628
sV\u542c\u89c1\u4e0b\u96e8\u7684\u58f0\u97f3
p260
I28763
sV\u7f8e\u4eba\u9c7c
p261
I18621
sV\u624b\u5199\u7684\u4ece\u524d
p262
I35788
sV\u9633\u660e\u5c71
p263
I6147
sV\u542c\u7238\u7238\u7684\u8bdd
p264
I13131
sV\u978b\u5b50\u7279\u5927\u53f7
p265
I11538
sV\u7a83\u7231
p266
I9188
sV\u7b97\u4ec0\u4e48\u7537\u4eba
p267
I39760
ssV\u5927\u5934\u8d34
p268
(dp269
V\u5927\u5934\u8d34
p270
I4666
ssV\u5341\u4e00\u6708\u7684\u8427\u90a6
p271
(dp272
V\u56db\u9762\u695a\u6b4c
p273
I17678
sV\u6d6a\u6f2b\u624b\u673a
p274
I15193
sV\u591c\u66f2
p275
I60307
sV\u4e00\u8def\u5411\u5317
p276
I77864
sV\u67ab
p277
I41709
sV\u9ea6\u82bd\u7cd6
p278
I11030
sV\u9006\u9cde
p279
I12180
sV\u9ed1\u8272\u6bdb\u8863
p280
I24333
sV\u98d8\u79fb
p281
I21474
sV\u84dd\u8272\u98ce\u66b4
p282
I10444
sV\u73ca\u745a\u6d77
p283
I27035
sV\u53d1\u5982\u96ea
p284
I30462
ssV\u4e03\u91cc\u9999
p285
(dp286
V\u6211\u7684\u5730\u76d8
p287
I14472
sV\u6401\u6d45
p288
I39288
sV\u5916\u5a46
p289
I19157
sV\u4e71\u821e\u6625\u79cb
p290
I17250
sV\u5c06\u519b
p291
I18373
sV\u6b62\u6218\u4e4b\u6b87
p292
I20179
sV\u4e03\u91cc\u9999
p293
I156826
sV\u56f0\u517d\u4e4b\u6597
p294
I13193
sV\u56ed\u6e38\u4f1a
p295
I31050
sV\u501f\u53e3
p296
I27867
ss.