(dp0
V\u90ed\u6e90\u6f6e
p1
(dp2
V\u90ed\u6e90\u6f6e
p3
I43146
ssV\u7a7a\u6e2f\u66f2
p4
(dp5
V\u7a7a\u6e2f\u66f2
p6
I31620
ssV\u5b89\u548c\u6865\u5317
p7
(dp8
V\u7ed9\u62b1\u7740\u76d2\u5b50\u7684\u59d1\u5a18
p9
I4822
sV\u8463\u5c0f\u59d0
p10
I29611
sVIntro\u2026
p11
I1494
sV\u5b89\u548c\u6865
p12
I215384
sV\u9e3d\u5b50
p13
I30303
sV\u5173\u5fc6\u5317
p14
I24034
sV\u68a6\u9057\u5c11\u5e74
p15
I13621
sV\u5361\u6bd4\u5df4\u62c9\u7684\u6d77
p16
I9318
sV\u516d\u5c42\u697c
p17
I7665
sV\u8fde\u8863\u88d9
p18
I5497
sV\u6591\u9a6c\uff0c\u6591\u9a6c
p19
I70772
sV\u8389\u8389\u5b89
p20
I53114
ss.