(dp0
V\u673a\u52a8\u8b66\u5bdf\u30d1\u30c8\u30ec\u30a4\u30d0\u30fc \u30a4\u30e1\u30fc\u30b8\u30fb\u30b5\u30a6\u30f3\u30c9\u30c8...
p1
(dp2
V\u771f\u591c\u4e2d\u306e\u9003\u8d70
p3
I2
sV\u5305\u56f2\u7f51
p4
I0
sV\u30d6\u30ed\u30c3\u30b1\u30f3
p5
I0
sVTYPE-X0(ZERO)
p6
I3
sVPOLICE FORCE
p7
I2
sVVIRUS
p8
I1
sV\u30ec\u30a4\u30d0\u30fcVS\u30ec\u30a4\u30d0\u30fc
p9
I0
sVSMILE
p10
I23
sV\u30a2\u30d0\u30a6\u30c8\u306b\u30e1\u30e9\u30f3\u30b3\u30ea\u30fc
p11
I4
sV\u30b3\u30f3\u30c6\u30ca\u30fb\u30c8\u30e9\u30c3\u30af
p12
I1
sV\u540e\u85e4\u559c\u4e00\u306e\u4e8b\u4ef6\u7c3f
p13
I7
sVClose to You
p14
I4
ssV\u5287\u5834\u7248 \u8584\u685c\u9b3c \u7b2c\u4e8c\u7ae0 \u58eb\u9b42\u84bc\u7a79 \u30aa\u30ea\u30b8\u30ca\u30eb...
p15
(dp16
V\u5225\u308c
p17
I2
sV\u91ce\u671b\u306e\u679c\u3066
p18
I2
sV\u5909\u308f\u308a\u3086\u304f\u6642\u4ee3
p19
I5
sV\u9b3c\u3068\u4eba\u3068
p20
I3
sV\u8aa0\u306e\u65d7\u3068\u5171\u306b
p21
I3
sV\u58eb\u9b42\u84bc\u7a79
p22
I35
sV\u624b\u7d19
p23
I9
sV\u59cb\u307e\u308a\u306e\u5730
p24
I7
sV\u305d\u308c\u305e\u308c\u306e\u751f\u304d\u65b9
p25
I4
sV\u76f8\u514b\u3059\u308b\u8aa0\u5fc3
p26
I2
sV\u5929\u9053\u306e\u5203
p27
I3
sV\u8a17\u3055\u308c\u305f\u60f3\u3044
p28
I6
sV\u9060\u304d\u9762\u5f71
p29
I4
sV\u7f85\u5239\u306e\u885d\u52d5
p30
I1
sV\u8feb\u308a\u304f\u308b\u523b
p31
I1
sV\u5486\u54ee
p32
I6
sV\u5317\u3078
p33
I10
ssV\u30a4\u30ce\u30bb\u30f3\u30b9 \u30aa\u30ea\u30b8\u30ca\u30eb\u30fb\u30b5\u30a6\u30f3\u30c9\u30c8\u30e9\u30c3\u30af
p34
(dp35
VDUNGEON
p36
I22
sVFOLLOW ME
p37
I222
sV\u8fdc\u795e\u6075\u4e3a(\u3068\u304a\u304b\u307f\u3048\u307f\u305f\u3081)
p38
I25
sVTYPE 2052
p39
I24
sV\u70bc\u72f1
p40
I9
sV\u5080\u5121\u8b21-\u65b0\u4e16\u306b\u795e\u96c6\u3044\u3066(\u304f\u3050\u3064\u3046\u305f \u3042\u3089\u3088\u306b\u304b\u307f\u3064\u3069\u3044\u3066)
p41
I498
sV\u5080\u5121\u8b21-\u9633\u708e\u306f\u9ec4\u6cc9\u306b\u5f85\u305f\u3080\u3068(\u304f\u3050\u3064\u3046\u305f \u304b\u3052\u308d\u3046\u306f\u3088\u307f\u306b\u307e\u305f\u3080\u3068)
p42
I613
sVTHE DOLL HOUSE I
p43
I75
sV\u5080\u5121\u8b21-\u6028\u6068\u307f\u3066\u6563\u308b(\u304f\u3050\u3064\u3046\u305f \u3046\u3089\u307f\u3066\u3061\u308b)
p44
I1792
sVTHE DOLL HOUSE II
p45
I21
sVRiver of Crystals
p46
I136
sVATTACK THE WAKABAYASHI
p47
I12
ssV\u3089\u3093\u307e1/2 \u97f3\u697d\u306e\u9244\u4eba\u7f16
p48
(dp49
V\u68ee\u82f1\u6cbb\u672a\u767a\u8868\u66f2\u96c6\u4f5c\u54c1 1~12
p50
I16
sV\u68ee\u82f1\u6cbb\u540d\u66f2\u30a8\u30af\u30b9\u30c6\u30f3\u30c7\u30c3\u30c9\u30fb\u30f4\u30a1\u30fc\u30b8\u30e7\u30f3\u96c6\u4f5c\u54c1 1~4
p51
I103
sV\u677e\u6d66\u6643\u4e45\u540d\u66f2\u30a8\u30af\u30b9\u30c6\u30f3\u30c7\u30c3\u30c9\u30fb\u30f4\u30a1\u30fc\u30b8\u30e7\u30f3\u96c6\u4f5c\u54c1 1~4
p52
I7
sV\u5ddd\u4e95\u5baa\u6b21\u672a\u767a\u8868\u66f2\u96c6\u4f5c\u54c1 1~4
p53
I16
sV\u677e\u6d66\u6643\u4e45\u672a\u767a\u8868\u66f2\u96c6\u4f5c\u54c1 1~3
p54
I3
sV\u5ddd\u4e95\u5baa\u6b21\u540d\u66f2\u30a8\u30af\u30b9\u30c6\u30f3\u30c7\u30c3\u30c9\u30fb\u30f4\u30a1\u30fc\u30b8\u30e7\u30f3\u96c6\u4f5c\u54c1 1~4
p55
I20
ssS'Higurashi no Naku Koro ni Kai Soundtrack...'
p56
(dp57
VHakana
p58
I3
sVKawaii Kamisama
p59
I3
sVMonogatari ~piano ver.
p60
I5
sVShizuka Naru Kougi
p61
I2
sVHakai
p62
I1
sVSenkou
p63
I3
sVKaimei
p64
I2
sVHarikitte Ikou! ~slow ver.~
p65
I3
sVMain Theme - Kai
p66
I15
sVHigyaku ~another ver.~
p67
I14
sVHeionbuji ~slow ver.~
p68
I11
sVIto ~alternative ver.~
p69
I3
sVItsumo Doori
p70
I2
sVShitsui
p71
I5
sVMain Theme - Kai ~another ver.~
p72
I14
sVMichishirube ~Piano Ver.~
p73
I6
sVWana
p74
I1
sVYokan
p75
I6
sVShukubou
p76
I3
sVShinsou
p77
I1
sVHigyaku
p78
I1
sVNaraku no Hana ~Short Ver.~
p79
I9
sVKaigi
p80
I1
sVMain Theme - Kai ~piano ver.~
p81
I9
sVGekitotsu
p82
I2
sVYamainu
p83
I1
ssV\u30a6\u30eb\u30c8\u30e9\u30de\u30f3\u30b8\u30fc\u30c9-Original Sound Track-
p84
(dp85
VGEED\u306e\u8a3c \u5fc3\u60c5 (M-2b)
p86
I55
sV\u65e5\u5e38-\u604b\u5fc3 (M-42)
p87
I14
sV\u30a6\u30eb\u30c8\u30e9\u30de\u30f3\u30bc\u30ed-\u30ec\u30a4\u30c8\u6226\u3044 (M-21)
p88
I69
sV\u30b8\u30fc\u30c9\u6226\u3044-\u512a\u52e22 (M-9)
p89
I61
sV\u30d9\u30ea\u30a2\u30eb-\u767b\u5834~\u512a\u52e2 (M-27)
p90
I23
sVAIB (M-35)
p91
I26
sV\u30ea\u30af-\u767b\u5834 (M-24)
p92
I11
sV\u30da\u30ac (M-32)
p93
I12
sV\u30a6\u30eb\u30c8\u30e9\u30de\u30f3\u30bc\u30ed-\u30a2\u30af\u30b7\u30e7\u30f3 (M-19)
p94
I38
sV\u65e5\u5e38-\u60b2\u3057\u3044 (M-38)
p95
I4
sV\u30e9\u30a4\u30cf-\u30a2\u30af\u30b7\u30e7\u30f3 (M-31)
p96
I18
sV\u30b8\u30fc\u30c9\u65e5\u5e38-\u60b2\u3057\u3044 (M-14)
p97
I9
sV\u30a6\u30eb\u30c8\u30e9\u30de\u30f3\u30bc\u30ed-\u50b7 (M-16)
p98
I12
sV\u30ec\u30a4\u30c8 (M-22)
p99
I9
sV\u30ea\u30af (M-23)
p100
I12
sV\u30a6\u30eb\u30c8\u30e9\u30de\u30f3\u30bc\u30ed-\u767b\u5834 (M-18)
p101
I60
sV\u30a6\u30eb\u30c8\u30e9\u30de\u30f3\u30b8\u30fc\u30c9\u30a2\u30af\u30ed\u30b9\u30de\u30c3\u30b7\u30e3\u30fc (M-5)
p102
I113
sV\u65e5\u5e38-\u89aa\u53cb (M-43)
p103
I17
sV\u65e5\u5e38-\u512a\u3057\u3044 (M-37)
p104
I5
sV\u30a6\u30eb\u30c8\u30e9\u30de\u30f3\u30bc\u30ed-\u30d4\u30f3\u30c1 (M-20)
p105
I10
sV\u30a6\u30eb\u30c8\u30e9\u30de\u30f3\u30ad\u30f3\u30b0 (M-15)
p106
I24
sV\u30b8\u30fc\u30c9\u6226\u3044-\u52a3\u52e21 (M-10)
p107
I4
sV\u65e5\u5e38-\u6012\u308a (M-41)
p108
I14
sV\u30a6\u30eb\u30c8\u30e9\u30de\u30f3\u30b8\u30fc\u30c9\u30d7\u30ea\u30df\u30c6\u30a3\u30d6 (M-3)
p109
I82
sV\u30e9\u30a4\u30cf (M-31)
p110
I11
sV\u65e5\u5e38-\u30b5\u30b9\u30da\u30f3\u30b9 (M-39)
p111
I13
sV\u30ea\u30af-\u602a\u7363\u512a\u52e2 (M-25)
p112
I7
sV\u30e2\u30a2 (M-33)
p113
I13
sV\u30a6\u30eb\u30c8\u30e9\u30de\u30f3\u30b8\u30fc\u30c9\u30bd\u30ea\u30c3\u30c9\u30d0\u30fc\u30cb\u30f3\u30b0 (M-4)
p114
I36
sV\u65e5\u5e38-\u30c9\u30bf\u30d0\u30bf (M-36)
p115
I8
sV\u30b8\u30fc\u30c9\u6226\u3044-\u52a3\u52e22 (M-11)
p116
I7
sV\u30b8\u30fc\u30c9\u6226\u3044-\u512a\u52e21 (M-8)
p117
I35
sV\u30ea\u30af-\u602a\u7363\u6050\u6016 (M-26)
p118
I5
sV\u30b8\u30fc\u30c9\u65e5\u5e38-\u697d\u3057\u3044 (M-13)
p119
I14
sV\u30b8\u30fc\u30c9\u65e5\u5e38-\u512a\u3057\u3044 (M-12)
p120
I5
sV\u65e5\u5e38-\u9a5a\u6115 (M-40)
p121
I15
sVGEED\u306e\u8a3c \u611f\u52d5 (M-2a)
p122
I143
ssV\u65e0\u8d23\u4efb\u8230\u957f\u30bf\u30a4\u30e9\u30fc MUSIC FILE ~SENTEHISS...
p123
(dp124
V\u8fdb\u3081!\u30bf\u30a4\u30e9\u30fc
p125
I0
sV\u65e0\u8d23\u4efb\u4e00\u4ee3\u8230\u957f
p126
I4
sV\u6226\u58eb\u30eb\u30fb\u30d0\u30e9\u30d0\u30fb\u30c9\u30e0
p127
I6
sV\u3053\u308c\u3067\u5b87\u5b99\u3082\u5b89\u5fc3\u3060
p128
I1
sV\u99c6\u9010\u8230\u201c\u305d\u3088\u304b\u305c\u201d
p129
I1
sV\u30b8\u30e3\u30b9\u30c8\u30fb\u30b7\u30f3\u30af\u30fb\u30aa\u30d6\u30fb\u30c8\u30a5\u30e2\u30ed\u30fc
p130
I10
sV\u30e6\u30ea\u30b3\u30fb\u30b9\u30bf\u30fc~\u3042\u3053\u304c\u308c\u306e\u541b
p131
I2
sV\u5927\u5b87\u5b99(\u304a\u304a\u305e\u3089)\u306e\u30b5\u30e0\u30e9\u30a4
p132
I0
sV\u30c0\u30a6\u30f3 \u30bf\u30a6\u30f3 \u30c0\u30f3\u30b9
p133
I3
sV\u94f6\u6cb3\u71c3\u3086
p134
I0
sV\u3069\u3046\u3057\u3066\u3053\u3093\u306a\u306b\u80dc\u3066\u308b\u3093\u3060\u308d\u3046
p135
I0
sV\u30a2\u30ed\u30fc\u30f3
p136
I2
sV\u30a2\u30b6\u30ea\u30f316\u6b73
p137
I7
sV\u30e4\u30de\u30e2\u30c8\u5927\u5c09\u306e\u82e6\u60a9
p138
I1
sV\u30b9\u30c8\u30ec\u30f3\u30b8\u30fb\u30e9\u30f4\u30a1\u30fc
p139
I3
ssV\u6a31\u306e\u56ed
p140
(dp141
V\u62d2\u7d76
p142
I1
sV\u5f00\u304b\u308c\u305f\u6249
p143
I3
sV\u5e7b\u60f3\u306e\u77ac\u95f4
p144
I1
sV\u5f00\u304b\u305a\u306e\u6559\u5ba4
p145
I1
sV\u53f6\u685c\u306e\u9877\u306b
p146
I2
sV\u65e7\u6821\u820e
p147
I0
sV\u82bd\u751f\u3048
p148
I4
sV\u3057\u3042\u308f\u305b\u306e\u8db3\u97f3
p149
I5
sV\u82b1\u306e\u56de\u5eca
p150
I16
sV\u3084\u308f\u3089\u304b\u306a\u671d
p151
I2
sV\u305d\u308c\u305e\u308c\u306e\u60f3\u3044
p152
I2
sV\u6563\u308a\u884c\u304f\u82b1\u3073\u3089
p153
I1
sV\u6625\u306e\u5c9a
p154
I1
sV\u6a31\u306e\u56ed~\u30e1\u30a4\u30f3\u30c6\u30fc\u30de~
p155
I6
ssV\u30b1\u30eb\u30d9\u30ed\u30b9-\u5730\u72f1\u306e\u756a\u72ac-
p156
(dp157
VSTRAY DOG-Epilogue-
p158
I2
sV\u9ec4\u660f
p159
I3
sVCM
p160
I6
sV\u8ffd\u60f3
p161
I2
sVSTRAY DOG-Prologue-
p162
I5
sV\u8ff7\u5bab
p163
I1
sV\u6226\u95d8\u56de\u5eca
p164
I4
sV\u60dc\u522b
p165
I1
sV\u5510\u5bc6(\u30bf\u30f3\u30df\u30fc)
p166
I2
sV\u9633\u708e
p167
I2
sV\u6f02\u767d
p168
I2
sVHIS MASTER\u2019S VOICE (BONUS TRACK)
p169
I1
ssVNHK\u30c9\u30e9\u30de8\u201c\u4e03\u702c\u3075\u305f\u305f\u3073\u201d\u30aa\u30ea\u30b8\u30ca\u30eb\u30fb\u30b5...
p170
(dp171
V\u51b2\u6483/\u8109\u52a8
p172
I0
sV\u5e8f\u5e55 ~\u5f02\u80fd\u8005\u305f\u3061~
p173
I4
sVOther
p174
I1
sV\u30ab\u30bf\u30b9\u30c8\u30ed\u30d5
p175
I3
sV\u7591\u60d1
p176
I0
sV\u5bfe\u5cd9
p177
I0
sV\u60b2\u3057\u307f\u3092\u8d85\u3048\u3066
p178
I1
sV\u3053\u3053\u308d
p179
I0
sVPK
p180
I1
sV\u30c6\u30ec\u30d1\u30b9
p181
I0
sV\u308f\u304f\u3089\u3070 ~\u706b\u7530\u6559\u6388\u3078\u306e\u30c6\u30fc\u30de~
p182
I0
sV\u8ffd\u5fc6/\u767a\u52a8
p183
I1
sV\u79c1\u305f\u3061\u306f\u4f55\u51e6\u3078\u884c\u304f\u306e\u304b
p184
I0
sV\u30c8\u30ea\u30c3\u30af\u30b9\u30bf\u30fc
p185
I0
sV\u8d66\u7f6a
p186
I1
sV\u30bf\u30a4\u30e0\u30b9\u30ea\u30c3\u30d7
p187
I0
sV\u65c5\u8def
p188
I1
sVSniff out! ~\u72ac\u306e\u9f3b~
p189
I1
sV\u5f02\u80fd\u8005\u305f\u3061 ~Fellows~
p190
I1
sV\u5e73\u548c\u306a\u5348\u540e
p191
I2
sV\u89c6\u7ebf
p192
I0
sV\u60aa\u610f
p193
I1
sVAlone ~\u4e03\u702c\u3075\u305f\u305f\u3073~
p194
I6
sV\u75be\u99c6
p195
I4
sV\u4e88\u77e5
p196
I1
ssV\u30b8\u30e7\u30fc\u30ab\u30fc\u30fb\u30b2\u30fc\u30e0 \u30b5\u30a6\u30f3\u30c9\u30c8\u30e9\u30c3\u30af CD v...
p197
(dp198
V\u5e30\u90f7
p199
I19
sV\u6f5c\u5728
p200
I3
sV\u76e3\u8996
p201
I5
sV\u7b56\u52d5
p202
I7
sV\u72ec\u6b69
p203
I17
ssVNHK\u5927\u6cb3\u30c9\u30e9\u30de\u300c\u82b1\u71c3\u3086\u300d \u30aa\u30ea\u30b8\u30ca\u30eb\u30fb\u30b5\u30a6...
p204
(dp205
V\u6587\u306e\u3075\u3057\u304e\u306a\u5f15\u529b
p206
I16
sV\u82b1\u7159
p207
I8
sV\u5927\u8f2a\u306e\u3054\u3068\u304f~\u6587\u306e\u30c6\u30fc\u30deA
p208
I181
sV\u4e45\u5742\u7384\u745e\u306e\u30c6\u30fc\u30de
p209
I4
sV\u5973\u306b\u751f\u307e\u308c\u305f\u304b\u3089\u3053\u305d
p210
I6
sV\u7344\u4e2d\u304b\u3089\u306e\u547b\u304d~\u9b3c\u795e\u306e\u9762
p211
I1
sV\u76df\u53cb\u3001\u3068\u3082\u306b\u3042\u308a!
p212
I3
sV\u9a12\u52d5B
p213
I5
sV\u9a12\u52d5A
p214
I7
sV\u3061\u3083\u3076\u53f0\u9a12\u52d5!
p215
I4
sV\u904b\u547d\u306e\u8ecc\u9053
p216
I30
sV\u6749\u5bb6\u306e\u66ae\u3089\u3057
p217
I59
sV\u5144\u3078\u306e\u61a7\u61ac
p218
I11
sV\u60aa\u5922\u306e\u30c8\u30e9\u30a6\u30de
p219
I3
sV\u7570\u56fd\u8972\u6765
p220
I3
sV\u9ad8\u6749\u664b\u4f5c\u306e\u30c6\u30fc\u30de
p221
I21
sV\u82b1\u71c3\u3086\u7d00\u884c1
p222
I16
sV\u6708\u5149\u306e\u60d1\u3044
p223
I3
sV\u898b\u3048\u306a\u304f\u3082\u56fa\u3044\u7cf8
p224
I6
sV\u3044\u3064\u95d8\u308b?\u4eca\u3067\u3057\u3087!
p225
I11
sV\u82b1\u71c3\u3086\u30fb\u30e1\u30a4\u30f3\u30c6\u30fc\u30de
p226
I570
sV\u672a\u77e5\u306e\u63a2\u6c42
p227
I7
sV\u5973\u306e\u5e78\u305b~\u82b1\u5360\u3044
p228
I11
sV\u899a\u9192
p229
I15
sV\u65b0\u82bd\u306e\u5fd7!
p230
I12
sV\u9082\u9014\u306b\u54b2\u304f\u8005
p231
I3
sV\u523b\u306e\u79fb\u308d\u3044
p232
I3
sV\u5c0f\u7530\u6751\u4f0a\u4e4b\u52a9\u306e\u30c6\u30fc\u30de
p233
I16
sV\u65e5\u306e\u672c\u306e\u5927\u6a39~\u677e\u9670\u306e\u30c6\u30fc\u30deA
p234
I11
ssV\u8f6e\u5efb
p235
(dp236
V\u63a0\u308c\u305f\u8bb0\u5fc6
p237
I0
sV\u5c11\u5973\u3068\u4eba\u5f62
p238
I3
sV\u8f6e\u5efb\u30e1\u30a4\u30f3\u30c6\u30fc\u30de
p239
I28
sV\u62db\u304f\u573a\u6240
p240
I2
sV\u5146\u3057
p241
I0
sV\u4fb5\u98df\u3059\u308b\u75db\u307f
p242
I0
sV\u5909\u8c8c\u3057\u3066\u3044\u304f\u6697
p243
I2
sV\u9003\u3052\u3089\u308c\u306c\u8fd0\u547d
p244
I0
sV\u63a5\u89e6\u3059\u308b\u65f6\u95f4\u3068\u573a\u6240
p245
I0
sV\u5fcd\u3073\u5bc4\u308b\u65f6\u95f4
p246
I0
sV\u3061\u3089\u3064\u304f\u8fc7\u53bb
p247
I0
sV\u72a0\u7272\u8005\u8fbe\u306e\u547c\u3073\u58f0
p248
I0
sV\u53cd\u590d\u3059\u308b\u4e16\u754c
p249
I2
sV\u6369\u308c~\u906d\u9047
p250
I2
sV\u305a\u3063\u3068\u4e00\u7eea\u3060\u3088\u2026
p251
I2
sV\u95ed\u3056\u3055\u308c\u305f\u8fc7\u53bb
p252
I0
sV\u5bfc\u304d
p253
I2
sV\u5fd8\u308c\u3048\u306c\u75db\u307f
p254
I0
ssV\u5186\u76d8\u7687\u5973\u30ef\u308b\u304d\u3085\u30fc\u30ec \u5341\u4e8c\u6708\u306e\u591c\u60f3\u66f2 \u5927\u5b87...
p255
(dp256
V\u68a6\u60f3
p257
I0
sV\u5371\u673a\u7684\u72b6\u51b5
p258
I1
sV\u5ec3\u589f
p259
I0
sV\u30a2\u30a4\u30ad\u30e3\u30c3\u30c1(\u30ef\u30eb\u30ad\u30e5\u30fc\u30ec\u7bc7)
p260
I9
sV\u30ef\u30eb\u30ad\u30e5\u30fc\u30ec\u30fb\u30b4\u30fc\u30b9\u30c8\u5909\u8eab!
p261
I2
sV\u7ec8\u308f\u308a\u3088\u3051\u308c\u3070\u2026
p262
I0
sV\u30f4\u30a1\u30eb\u30cf\u30e9\u306e\u5371\u673a
p263
I0
sV\u30b5\u30d6\u30bf\u30a4\u30c8\u30eb
p264
I8
sV\u5bc2\u3057\u3044\u6c17\u6301\u3061
p265
I1
sV\u7d20\u6674\u3089\u3057\u304d\u671d
p266
I0
sV\u5c11\u5973\u306e\u60f3\u3044
p267
I3
sV\u30ef\u30eb\u30ad\u30e5\u30fc\u30ec\u306e\u4f18\u3057\u3055
p268
I0
sV\u30ef\u30eb\u30ad\u30e5\u30fc\u30ec\u30fb\u30b4\u30fc\u30b9\u30c8\u306e\u30c6\u30fc\u30de
p269
I0
sV\u30a2\u30a4\u30ad\u30e3\u30c3\u30c1(\u30ef\u308b\u304d\u3085\u30fc\u30ec\u7bc7)
p270
I10
sV\u30d1\u30ef\u30fc\u30a2\u30c3\u30d7!
p271
I0
sV\u4e00\u5bb6\u56e3\u683e
p272
I1
sV\u68a6\u89c1\u308b\u5c11\u5973\u30e9\u30a4\u30cd
p273
I0
sV\u5e7b\u60f3
p274
I2
sV\u79cb\u30c9\u30e9\u5408\u4f53!
p275
I1
sV\u30de\u30fc\u30d6\u30eb
p276
I2
sV\u54c0\u3057\u307f\u306e\u30b3\u30fc\u30e9\u30b9(\u30b7\u30ea\u30a2\u30b9\u7bc7)
p277
I4
sV\u307b\u3093\u306e\u308a\u30a6\u30ad\u30a6\u30ad!
p278
I0
sV\u54c0\u3057\u307f\u306e\u30b3\u30fc\u30e9\u30b9
p279
I5
sV\u5263\u58eb!\u30cf\u30a4\u30c9\u30e9
p280
I50
sV\u56db\u3064\u306e\u6708
p281
I1
sV\u524d\u5146
p282
I0
sV\u6cd5\u87ba\u5439\u304d!?\u30b3\u30fc\u30e9\u30b9
p283
I0
sV\u30ef\u308b\u304d\u3085\u30fc\u30ec\u306e\u6d99
p284
I17
sV\u79cb\u83dc\u306e\u80f8\u304c\u2026!
p285
I1
sV\u8ffd\u5fc6\u306e\u30ef\u30eb\u30ad\u30e5\u30fc\u30ec
p286
I3
sV\u814a\u6708\u306e\u7687\u5973(\u30ef\u30eb\u30ad\u30e5\u30fc\u30ec&\u30ef\u30eb\u30ad\u30e5\u30fc\u30ec\u30fb\u30b4\u30fc\u30b9\u30c8:\u7eea\u65b9\u6075\u7f8e)
p287
I46
sV\u30ef\u30eb\u30ad\u30e5\u30fc\u30ec\u30fb\u30b4\u30fc\u30b9\u30c8\u306e\u30c6\u30fc\u30de(\u5371\u673a)
p288
I0
sV\u30ef\u30eb\u30ad\u30e5\u30fc\u30ec\u306e\u9a91\u884c(\u3061\u3087\u3053\u307e\u304b\u7bc7)
p289
I1
sV\u5de8\u5927\u7269\u4f53\u63a5\u8fd1!
p290
I2
ssVNHK\u8fde\u7d9a\u30c6\u30ec\u30d3\u5c0f\u8aac \u6885\u3061\u3083\u3093\u5148\u751f \u30aa\u30ea\u30b8\u30ca\u30eb...
p291
(dp292
V\u6885\u306e\u3064\u307c\u307f
p293
I1
sV\u3044\u306e\u3061
p294
I1
sV\u6885\u5b50\u594b\u95d8\u8bb01
p295
I18
sV\u6885\u5b50\u594b\u95d8\u8bb02
p296
I2
sV\u753a\u533b\u8005
p297
I1
sV\u6885\u3061\u3083\u3093\u5148\u751f
p298
I2
sV\u7231\u306e\u6328\u62f6
p299
I4
sV\u6bcd\u306a\u308b\u7231
p300
I3
sV\u30b7\u30f3\u30b7\u30a2
p301
I1
sV\u3072\u304b\u308a\u306e\u5c04\u3059\u65b9\u3078
p302
I2
sV\u6c17\u304c\u3064\u3051\u3070\u3044\u3064\u3082\u305d\u3070\u306b\u3044\u305f
p303
I1
sV\u3053\u3052\u8336\u8272\u306e\u98ce\u666f
p304
I1
sV\u987d\u56fa\u4eb2\u7236
p305
I3
sV\u65b0\u7c73\u533b\u5e081
p306
I2
sV\u65b0\u7c73\u533b\u5e082
p307
I0
sV\u84b2\u7530\u306e\u5915\u65e5
p308
I5
sV\u65e5\u52e4\u591c\u52e4
p309
I3
sV\u79c1\u306f\u8d1f\u3051\u305f\u304f\u306a\u3044
p310
I2
sV\u624b\u672f\u5ba4
p311
I2
sV\u7d20\u76f4\u306a\u604b\u5fc3
p312
I2
sV\u3046\u308f\u3055\u8bdd
p313
I1
sV\u4e09\u79cd\u306e\u795e\u5668
p314
I2
sV\u65b0\u3057\u3044\u65f6\u4ee3
p315
I27
sV\u4e0d\u53ef\u89e3\u306a\u96a3\u4eba
p316
I2
sV\u72ac\u733f\u306e\u4ef2
p317
I2
sV\u6885\u306e\u714c\u3081\u304d
p318
I17
sV\u522b\u308c\u306e\u66f2
p319
I4
sV\u5927\u65e5\u672c\u30cb\u30e5\u30fc\u30b9
p320
I2
sV\u30ad\u30ba\u30ca
p321
I2
sV\u6697\u5546\u58f2
p322
I7
sV\u533b\u5e08\u3068\u3057\u3066
p323
I1
sV\u79c1\u306f\u8d1f\u3051\u306a\u3044
p324
I1
sV\u7af9\u9a6c\u306e\u53cb
p325
I6
ssV\u673a\u52a8\u8b66\u5bdf\u30d1\u30c8\u30ec\u30a4\u30d0\u30fc \u30e1\u30e2\u30ea\u30a2\u30eb\u30fb\u30b3\u30ec\u30af\u30b7...
p326
(dp327
V\u653f\u5e9c\u5e83\u62a5
p328
I5
sV\u590f\u306e\u5632\u7b11
p329
I3
sV\u865a\u5f71\u306e\u8857
p330
I2
sVGEGE
p331
I1
sV\u30d8\u30f4\u30a3\u30fb\u30a2\u30fc\u30de\u30fc
p332
I16
sV\u51fa\u6483\u547d\u4ee4
p333
I6
sVID:666
p334
I10
sV\u5171\u9e23
p335
I5
sV\u8feb\u308b\u4e0d\u5b89
p336
I1
sV\u30d0\u30d9\u30eb\u306e\u5d29\u58ca
p337
I8
sV\u65b9\u821f
p338
I1
sV\u7a81\u5165
p339
I6
sVHOS
p340
I5
sV\u30c8\u30de\u30c8\u7551
p341
I0
sV\u671d\u9633\u306e\u4e2d\u3078
p342
I15
sV\u66b4\u8d70\u4e8b\u4ef6
p343
I6
sV\u6d77\u3078
p344
I3
ssV\u30ab\u30aa\u30b9
p345
(dp346
Vmessage\u266f8501
p347
I0
sVmurder
p348
I1
sVcorpse
p349
I1
sVchaos
p350
I2
sVmonochrome
p351
I0
sVtag
p352
I0
sVmetamorphosis
p353
I0
sVthreat
p354
I2
sVrouge
p355
I1
sVraindrops
p356
I1
sVmodel
p357
I1
sVdress
p358
I2
sVrecognition
p359
I0
ssV\u653b\u6bbb\u673a\u52a8\u961f 2.0 O.S.T
p360
(dp361
V\u8b21 I - Making of Cyborg (2.0 Ver.)
p362
I510
sVGhosthack (2.0 Ver.)
p363
I12
sVPuppetmaster (2.0 Ver.)
p364
I8
sVGhostdive(2.0 Ver.)
p365
I6
sVVirtual Crime (2.0 Ver.)
p366
I11
sV\u8b21 II - Ghost City (2.0 Ver.)
p367
I232
sV\u8b21 III - Reincarnation (2.0 Ver.)
p368
I268
sVFloating Museum(2.0 Ver.)
p369
I53
sV\u6bce\u5929\u898b\u4e00\u898b!(2.0 Ver.)
p370
I73
sV\u653b\u6bbb\u673a\u52a8\u961f\u4e88\u544aBGM (2.0 Ver.)
p371
I28
sVNightstalker(2.0 Ver.)
p372
I37
sVAccess(2.0 Ver.)
p373
I7
ssV\u300c\u6b66\u88c5\u4e2d\u5b66\u751f \u30d0\u30b9\u30b1\u30c3\u30c8\u30a2\u30fc\u30df\u30fc\u300d\u30aa\u30ea\u30b8...
p374
(dp375
V\u967d\u52d5
p376
I2
sV2026\u5e74\u3001\u590f
p377
I7
sV\u9283\u5f8c\u306e\u6625
p378
I16
sV\u5922
p379
I18
sV\u5927\u5730\u3088
p380
I5
sV\u30ac\u30fc\u30eb\u30ba\u30c8\u30fc\u30af
p381
I1
sV\u6226\u4e89\u306f\u3069\u3053\uff1f
p382
I1
sV\u30d7\u30ed\u30ed\u30fc\u30b0
p383
I11
sV\u5c11\u5973\u306e\u77b3\u306b\u6620\u308b\u4e16\u754c
p384
I6
sV\u4e0d\u5b89
p385
I1
sV\u591c\u660e\u3051
p386
I4
sV\u7d42\u5e55
p387
I3
sV\u30c8\u30e9\u30a4\u30c7\u30f3\u30c8
p388
I2
sV\u30d0\u30b9\u30b1\u30c3\u30c8\u30a2\u30fc\u30df\u30fc
p389
I0
sV\u672a\u9001\u4fe1\u30e1\u30fc\u30eb
p390
I0
sV\u63fa\u308c\u308b\u5fc3
p391
I1
sV\u9752\u6625\u306e\u304d\u3089\u3081\u304d
p392
I2
sV\u606f\u3092\u5f3e\u307e\u305b\u3066
p393
I1
sV\u518d\u4f1a
p394
I5
ssS'Running Wild O.S.T'
p395
(dp396
VIntrigue, Tell me the truth, Vertigo
p397
I0
sVI'm alone
p398
I0
sVThe Fight (part 2)
p399
I0
sVNight Investigation
p400
I0
sVJust wanna be happy
p401
I2
sVRelease from Prison
p402
I1
sVLight & Shadow
p403
I1
sVwhy am I thrown over
p404
I0
sVdelicious & thankful
p405
I1
sVMother's Dead
p406
I0
sVStairway to Inferno, Life between joy and sorrow
p407
I1
sVLighter
p408
I1
sVyou will loose everything
p409
I0
sVNothing without you
p410
I1
sVThe Running Wild Overture
p411
I2
sVSad Fighting
p412
I6
sVA revenger, The Fight (part 1)
p413
I0
sVDark side of time
p414
I0
sVSad Dream
p415
I4
sVTwo different destiny
p416
I3
sVInvestigation & arrest
p417
I0
sVAll the criminals
p418
I112
sVThe fight (part 3)
p419
I0
sVMother & Son
p420
I0
sVWounded birds
p421
I0
sVDuel of the fates
p422
I0
sVFallen Justice
p423
I0
sVBroken Dream
p424
I1
ssVNHK\u9023\u7d9a\u30c6\u30ec\u30d3\u5c0f\u8aac \u6885\u3061\u3083\u3093\u5148\u751f \u30aa\u30ea\u30b8\u30ca\u30eb...
p425
(dp426
V\u6885\u3061\u3083\u3093\u5148\u751f \u6182\u3044
p427
I1
sV\u3044\u306e\u30612
p428
I1
sV\u706b\u4e8b\u5834\u306f\u706b\u306e\u8eca1
p429
I2
sVGOD NURSE
p430
I1
sV\u597d\u5947\u5fc3\u65fa\u76db
p431
I2
sV\u7236\u5b50\u306e\u3059\u308c\u9055\u3044
p432
I3
sV\u63fa\u308c\u308b\u5bb6\u65cf2
p433
I1
sV\u8131\u7dda\u3057\u304b\u3051\u305f\u8eca\u8f2a
p434
I2
sV\u6885\u5b50\u596e\u95d8\u8a183
p435
I2
sV\u7570\u5f62\u306e\u604b
p436
I2
sV\u4e0d\u5668\u7528\u306a\u79c1
p437
I5
sV\u4e16\u306b\u3082\u5947\u5999\u306a\u9762\u3005
p438
I1
sV\u683c\u8a00
p439
I2
sV\u73cd\u5ba2\u4e07\u6765
p440
I2
sV\u59bb\u3068\u3057\u3066\u3001\u6bcd\u3068\u3057\u3066
p441
I1
sV\u6885\u5b50\u306e\u60b2\u3057\u307f
p442
I11
sV\u79c1\u306f\u8ca0\u3051\u305f\u304f\u306a\u30442
p443
I3
sV\u7537\u9054\u306e\u80cc\u4e2d2
p444
I1
sV\u4e0d\u5354\u548c\u97f3
p445
I1
sV\u753a\u5de5\u5834\u306e\u59bb
p446
I2
sV\u6885\u3061\u3083\u3093\u5148\u751f \u767a\u596e
p447
I2
sV\u3075\u305f\u3064\u5c4b\u6839\u306e\u4e0b
p448
I5
sV\u7537\u9054\u306e\u80cc\u4e2d1
p449
I6
sV\u6885\u3061\u3083\u3093\u5148\u751f \u90f7\u6101
p450
I1
sV\u9ad8\u9cf4\u308b\u9f13\u52d5
p451
I2
sV\u4e03\u8272\u306e\u8857\u4e26\u307f
p452
I6
sV\u63fa\u308c\u308b\u60f3\u3044
p453
I2
sVfor My Friend
p454
I3
sV\u60b2\u604b
p455
I2
sV\u3066\u30a7\u3078\u3093\u3060\u3041!
p456
I1
sV\u6c17\u304c\u3064\u3051\u3070\u3044\u3064\u3082\u305d\u3070\u306b\u3044\u305f2
p457
I2
sV\u7070\u8272\u306e\u6642\u4ee3
p458
I2
sV\u5bb6\u4e8b\u5834\u306f\u706b\u306e\u8eca2
p459
I2
sV\u533b\u5e2b\u3068\u3057\u30662
p460
I3
sVTHE \u677e\u5ca1!
p461
I4
sV\u767d\u306e\u5de8\u5854
p462
I3
sV\u65b0\u3057\u3044\u751f\u547d
p463
I2
ssVFolksSoul-\u5931\u308f\u308c\u305f\u4f1d\u627f- \u30aa\u30ea\u30b8\u30ca\u30eb\u30b5\u30a6\u30f3...
p464
(dp465
V\u80c1\u5a01
p466
I0
sV\u771f\u5b9f
p467
I0
sV\u30da\u30f3\u30d5\u30a3\u30fc\u30eb\u30c9\u306e\u5730\u56f3
p468
I0
sV\u9e23\u52a8
p469
I0
sV\u77e5\u3089\u308c\u3056\u308b\u4e16\u754c\u3078
p470
I31
sV\u8bbf\u308c\u308b\u60b2\u5267
p471
I0
sV\u53e4\u4ee3\u306e\u606f\u5439
p472
I1
sV\u5de7\u8005\u306e\u67aa
p473
I0
sV\u51b2\u6483
p474
I0
sV\u5996\u7cbe\u306e\u30ef\u30eb\u30c4
p475
I0
sV\u6563\u308a\u884c\u304f\u82b1\u306b
p476
I0
sV\u9065\u304b\u306a\u8bb0\u5fc6
p477
I0
sV\u8fc7\u53bb\u304b\u3089\u306e\u58f0
p478
I1
sV\u6050\u308b\u308b\u3079\u304d\u3082\u306e
p479
I0
sV\u751f\u3051\u308b\u6b74\u53f2
p480
I0
sV\u5371\u673a
p481
I0
sV\u795e\u3005\u306e\u5730
p482
I0
sV\u795e\u79d8\u306e\u6249
p483
I0
sV\u88c1\u304f\u8005\u3001\u88c1\u304b\u308c\u308b\u8005
p484
I0
sV\u65c5\u8def\u306e\u306f\u3058\u307e\u308a
p485
I0
sV\u738b\u305f\u308b\u5668
p486
I2
sV\u795e\u79d8
p487
I38
sV\u795e\u8bdd\u3088\u308a\u51fa\u3067\u3066
p488
I0
sV\u5b64\u72ec
p489
I2
sV\u523b\u307e\u308c\u308b\u65f6
p490
I0
sV\u5f02\u754c
p491
I0
sVDANNY BOY
p492
I1
sV\u6cd5\u5ef7
p493
I0
sV\u5bfe\u51b3
p494
I0
sV\u661f\u964d\u308b\u4e0b\u3067
p495
I0
sV\u30a2\u30f4\u30a1\u30ed\u30f3
p496
I1
sV\u6d6e\u304b\u3073\u4e0a\u304c\u308b\u8fc7\u53bb
p497
I0
sV\u51b3\u610f
p498
I0
sV\u5fd8\u308c\u3089\u308c\u305f\u6751
p499
I0
sV\u4f11\u606f
p500
I8
sV\u7ec8\u308f\u3089\u306a\u3044\u6226\u573a
p501
I0
sV\u5185\u306a\u308b\u6697\u3068
p502
I0
sVIRISH LULLABY
p503
I5
sV\u899a\u9192
p504
I1
sV\u7ec8\u308f\u308a\u306e\u59cb\u307e\u308a
p505
I5
sV\u5ba1\u5224\u306e\u5730\u3067
p506
I0
sV\u4ea4\u970a
p507
I6
sV\u751f\u6b7b\u306e\u72ed\u95f4\u3067
p508
I0
sV\u4f01\u3066
p509
I0
sV\u86c7\u7adc\u306e\u5de3\u7a9f
p510
I1
sV\u8bb0\u5fc6\u306e\u679c\u3066
p511
I1
sV\u5d29\u58ca
p512
I0
sV\u9b42\u306e\u884c\u304f\u5148
p513
I1
sV\u899a\u609f
p514
I0
sV\u60b2\u54c0
p515
I1
sV\u8bd5\u7ec3
p516
I0
sV\u5909\u8c8c
p517
I1
ssS'PROJECT2501: THE REAL IMAGE COLLECTION O...'
p518
(dp519
VSE-1 (Handun by MOTOKO) SE-2 (Handgun by BATEAU)
p520
I2
sVM1 \u672a\u6765\u3078\u306e\u7ea6\u675f
p521
I3
sVMOTOKO KUSANAGI 1 \u301cIN THE BATTLE FIELD\u301c
p522
I9
sVPROLOGUE
p523
I11
sVTOGUSA & ISHIKAWA \u301cUNIT MEMBER OF SECTION9\u301c
p524
I0
sVSE-3 (Handgun by TOGUSA) SE-4 (CHINESE UZI SMG)
p525
I2
sVM2 \u8b21
p526
I32
sVMOTOKO KUSANAGI 2 \u301cGHOST IN THE SHELL\u301c
p527
I4
sVSE-7 (SNIPED by SECTION6) SE-8 (''GETEMONO'')
p528
I2
sVM4 (ONE MINUTE WARNING)
p529
I9
sVPUPET MASTER \u301cINFAMOUS HACKER\u301c
p530
I0
sVSECTION9 OF PUBLIC SAFETY \u301cTHE SECRET SERVICE\u301c
p531
I2
sVBATEAU \u301cTHE PARTNER OF MOTOKO\u301c
p532
I7
sVM3 \u6bce\u5929\u89c1\u4e00\u89c1
p533
I32
sVSE-5 (SMG by BODYGUARD) SE-6 (9 WEAPON by MOTOKO)
p534
I3
ssV\u79d1\u635c\u7814\u306e\u5973 \u30aa\u30ea\u30b8\u30ca\u30eb\u30b5\u30a6\u30f3\u30c9\u30c8\u30e9\u30c3\u30af
p535
(dp536
V\u6df1\u3044\u60b2\u3057\u307f (01)
p537
I2
sV\u30de\u30ea\u30b3\u306e\u30c6\u30fc\u30de -\u63a8\u7406- (01)
p538
I1
sV\u5fc3\u60c5 (06)
p539
I0
sV\u6050\u6016 (02)
p540
I2
sV\u79d1\u635c\u7814\u306e\u30c6\u30fc\u30de -\u51fa\u52a8\u30fb\u884c\u52a8- (04)
p541
I1
sV\u79d1\u635c\u7814\u306e\u30c6\u30fc\u30de -\u884c\u52a8- (02)
p542
I1
sV\u79d1\u635c\u7814\u306e\u30c6\u30fc\u30de -\u63a8\u7406- (01)
p543
I0
sV\u30b5\u30b9\u30da\u30f3\u30b9 -\u4f55\u304b\u304c\u8d77\u3053\u308b- (01)
p544
I0
sV\u5fc3\u60c5 (02)
p545
I1
sV\u60b2\u3057\u307f (01)
p546
I0
sV\u30de\u30ea\u30b3\u306e\u30c6\u30fc\u30de -\u660e\u308b\u304f- (04)
p547
I0
sV\u30de\u30ea\u30b3\u306e\u30c6\u30fc\u30de -\u4f18\u3057\u304f- (01)
p548
I1
sV\u635c\u67fb (10)
p549
I0
sV\u79d1\u635c\u7814\u306e\u30c6\u30fc\u30de -\u63a2\u7d22- (02)
p550
I1
sV\u7231 (01)
p551
I2
sV\u30d6\u30ea\u30c3\u30b8 (02)
p552
I9
sV\u30d6\u30ea\u30c3\u30b8 -\u5fc3\u60c5- (01)
p553
I0
sV\u65b0\u5c71\u306e\u30c6\u30fc\u30de -\u63a8\u7406- (02)
p554
I1
sV\u4f18\u3057\u304f (06)
p555
I0
sV\u98ce\u4e18\u65e9\u6708\u306e\u30c6\u30fc\u30de -\u884c\u52a8- (08)
p556
I2
sV\u79d1\u635c\u7814\u306e\u30c6\u30fc\u30de -\u51fa\u52a8- (01)
p557
I2
sV\u30de\u30ea\u30b3\u306e\u30c6\u30fc\u30de -\u30de\u30fc\u30c1\u98ce- (01)
p558
I0
sV\u30de\u30ea\u30b3\u306e\u30c6\u30fc\u30de -\u63a8\u7406- (02)
p559
I1
sV\u72af\u4eba\u306e\u82e6\u60a9 (02)
p560
I1
sV\u53cb\u60c5 (01)
p561
I0
sV\u6b66\u85e4\u306e\u30c6\u30fc\u30de -\u72ec\u308a\u829d\u5c45- (02)
p562
I1
sV\u571f\u95e8\u306e\u30c6\u30fc\u30de -\u884c\u52a8- (04)
p563
I2
sV\u60c5\u666f (01)
p564
I2
sV\u79d1\u635c\u7814\u306e\u30c6\u30fc\u30de -\u660e\u308b\u304f- (04)
p565
I2
sV\u30b5\u30b9\u30da\u30f3\u30b9 -\u8feb\u308a\u6765\u308b\u611f\u3058- (01)
p566
I0
sV\u79d1\u635c\u7814\u306e\u30c6\u30fc\u30de -\u63a8\u7406- (04)
p567
I0
sV\u6728\u573a\u306e\u30c6\u30fc\u30de -\u4f18\u3057\u304f- (01)
p568
I0
sV\u79d1\u635c\u7814\u306e\u30c6\u30fc\u30de -\u539a\u304f- (06)
p569
I2
sV\u79d1\u635c\u7814\u306e\u30c6\u30fc\u30de -\u30a2\u30c3\u30d7\u30c6\u30f3\u30dd- (10)
p570
I1
sV\u30de\u30ea\u30b3\u306e\u30c6\u30fc\u30de -\u63a8\u7406\u30fb\u884c\u52a8- (04)
p571
I0
sV\u30de\u30ea\u30b3\u306e\u30c6\u30fc\u30de -\u60b2\u3057\u307f- (04)
p572
I0
sV\u30a2\u30af\u30b7\u30e7\u30f3 (02)
p573
I1
sV\u30de\u30ea\u30b3\u306e\u30c6\u30fc\u30de -\u6012\u308a- (01)
p574
I1
sV\u98ce\u4e18\u65e9\u6708\u306e\u30c6\u30fc\u30de -\u660e\u308b\u304f- (08)
p575
I15
sV\u571f\u95e8\u306e\u30c6\u30fc\u30de -\u6012\u308a\u30fb\u30a2\u30af\u30b7\u30e7\u30f3- (04)
p576
I0
sV\u30d6\u30ea\u30c3\u30b8 (01)~\u73b0\u573a\u691c\u8bc1 (06) - live
p577
I1
ssV\u201c\u3072\u3050\u3089\u3057\u306e\u306a\u304f\u9877\u306b\u201d\u30b5\u30a6\u30f3\u30c9\u30c8\u30e9\u30c3\u30af
p578
(dp579
V\u60f3\u3044\u62b1\u3044\u3066
p580
I21
sV\u30cf\u30ea\u30ad\u3063\u3066\u884c\u3053\u3046!
p581
I4
sV\u5c11\u5973
p582
I9
sV\u796d\u308a
p583
I9
sV\u30ef\u30eb\u3060\u304f\u307f
p584
I14
sV\u4e8b\u4ef6
p585
I10
sV\u7d27\u5f20
p586
I12
sV\u30e1\u30a4\u30f3\u30fb\u30c6\u30fc\u30de
p587
I175
sV\u30a6\u30e9\u30ac\u30ef
p588
I4
sV\u7591\u60d1
p589
I21
sV\u5143\u6c17\u5370!
p590
I6
sV\u30e1\u30a4\u30f3\u30fb\u30c6\u30fc\u30de~revise~
p591
I10
sV\u7b11\u9854
p592
I8
sV\u6d78\u884c
p593
I14
sV\u9759\u304b\u306a\u671d
p594
I10
sV\u5371\u673a
p595
I6
sV\u30aa\u30e4\u30b7\u30ed\u3055\u307e
p596
I20
sV\u6697\u793a
p597
I10
sV\u4f01\u307f
p598
I18
sVwhy,or why not~TV Version~
p599
I17
sV\u653e\u8bfe\u540e
p600
I8
sV\u80dc\u8d1f!
p601
I2
sV\u3072\u3050\u3089\u3057\u306e\u306a\u304f\u9877\u306b~TV Version~
p602
I41
sV\u3082\u306e\u304c\u305f\u308a
p603
I13
sV\u9b3c\u30f6\u6e0a
p604
I63
sV\u795f\u308a
p605
I39
sV\u6388\u4e1a\u4e2d!
p606
I4
sV\u51b3\u3081\u308b\u305c!
p607
I12
sV\u5915\u51c9\u307f
p608
I7
sV\u6dd1\u3084\u304b\u306b
p609
I6
sV\u6050\u6016
p610
I115
sV\u6697\u8ee2
p611
I47
sV\u3084\u3059\u3089\u304e
p612
I9
sV\u51ed\u4f9d
p613
I4
sV\u6563\u7b56
p614
I8
sV\u5207\u306a\u304f\u3066
p615
I8
ssV\u7ea2\u3044\u773c\u955c
p616
(dp617
V\u4ed6\u4eba\u306e\u8857
p618
I0
sVDiarrhea
p619
I3
sV\u30a8\u30f3\u30c7\u30a3\u30f3\u30b0\u30fb\u30bf\u30a4\u30c8\u30eb
p620
I3
sVC&W
p621
I1
sV\u591c\u884c
p622
I1
sV\u767d\u6d82\u308a\u7a81\u5165 (BONUS TRACKS)
p623
I0
sV\u8fdc\u5420\u3048 (BONUS TRACKS)
p624
I1
sV\u8131\u51fa
p625
I1
sV\u7acb\u3061\u55b0\u3044\u305d\u3070\u5c4b
p626
I0
sVThe Red Spectacls-20TH EDITION- (BONUS TRACKS)
p627
I13
sV\u306a\u3093\u3058\u3083\u3053\u308a\u3083 (BONUS TRACKS)
p628
I0
sV\u9003\u8d70
p629
I1
sV\u5ba3\u544a
p630
I0
sV\u75be\u8d70
p631
I4
sV\u5e7b\u306e\u30b9\u30af\u30ea\u30fc\u30f3
p632
I1
sV\u522b\u308c
p633
I73
sV\u5c11\u5973\u306e\u30c6\u30fc\u30de
p634
I10
sV\u30e1\u30a4\u30f3\u30fb\u30bf\u30a4\u30c8\u30eb
p635
I6
sV\u6587\u660e\u306e\u30de\u30f3\u30dc
p636
I1
sV\u91cc\u5207\u308a
p637
I0
sV\u732b\u4f53\u64cd\u7b2c\u4e8c (BONUS TRACKS)
p638
I5
sV\u7ea2\u4e00\u3068\u307f\u3069\u308a
p639
I3
sV\u96e8
p640
I2
sV\u7ea2\u3044\u4e88\u544a (BONUS TRACKS)
p641
I4
sV\u5bfe\u8bdd\u30bf\u30af\u30b7\u30fc\u306e\u771f\u5b9f (BONUS TRACKS)
p642
I0
ssV\u5438\u8840\u59eb\u7f8e\u5915 \u2015 \u30aa\u30ea\u30b8\u30ca\u30eb\u30fb\u30b5\u30a6\u30f3\u30c9\u30c8\u30e9\u30c3...
p643
(dp644
V\u7231\u3059\u308b\u60f3\u3044\u306b\u2026
p645
I11
sV\u5931\u304f\u3057\u305f\u7231\u306f\u60b2\u3057\u304f\u3066
p646
I4
sV\u9b54\u6027\u306e\u5f71
p647
I7
sV\u4eba\u5f62\u5e08\u306e\u30ef\u30eb\u30c4
p648
I9
sV\u8d85\u80fd\u529b
p649
I3
sV\u7a7a\u306e\u6697\u6740\u8005
p650
I2
sV\u82e6\u60a9
p651
I4
sV\u3055\u3056\u6ce2
p652
I9
sV\u7ea6\u675f
p653
I8
sV\u6697\u7b1b
p654
I33
sV\u30b5\u30d6\u30bf\u30a4\u30c8\u30eb
p655
I13
sV\u82b1\u56ed\u306e\u3055\u3055\u3084\u304d
p656
I11
sV\u7f8e\u95d8\u7f8e
p657
I3
sV\u6b7b\u6c34\u6676\u306e\u5263
p658
I9
sV\u9022\u3044\u305f\u3044
p659
I14
sV\u5bbf\u547d\u306e\u30ab\u30bf\u30eb\u30b7\u30b9
p660
I22
sV\u795e\u9b54\u306e\u9f13\u52a8
p661
I154
sV\u5c01\u5370
p662
I17
sV\u9b54\u624b
p663
I4
sV\u54c0\u3057\u307f\u306e\u8c03\u3079
p664
I9
sV\u6c37\u306e\u5fae\u7b11
p665
I4
sV\u795e\u9b54\u306e\u95d8\u3044
p666
I4
sV\u5973\u9053\u58eb
p667
I8
sV\u53cb\u8fbe
p668
I3
sV\u3084\u3059\u3089\u304e\u306e\u4e2d\u3067
p669
I4
sV\u7f8e\u5915\u516b\u5343\u591c
p670
I177
sV\u8fd0\u547d
p671
I19
sV\u307e\u3093\u307e\u308b\u624b\u307e\u308a\u6b4c
p672
I30
sV\u6740\u98ce\u6b4c
p673
I1
sV\u9003\u907f\u884c
p674
I11
sV\u4f18\u3057\u3055\u306e\u65f6\u95f4(\u3068\u304d)\u306b
p675
I10
sV\u65e0\u5c3d\u306e\u632f\u821e\u3044
p676
I8
sV\u30bb\u30d4\u30a2\u8272\u306e\u30ed\u30de\u30f3
p677
I4
sV\u51b3\u610f
p678
I15
ssVNHK\u5927\u6cb3\u30c9\u30e9\u30de\u300c\u82b1\u71c3\u3086\u300d\u30aa\u30ea\u30b8\u30ca\u30eb\u30fb\u30b5\u30a6\u30f3...
p679
(dp680
V\u60b2\u5287\u306e\u679c\u3066
p681
I3
sV\u5927\u8f2a\u306e\u3054\u3068\u304f~\u6587\u306e\u30c6\u30fc\u30deB
p682
I28
sV\u79d8\u5bc6\u88cf\u306e\u5606\u9858
p683
I1
sV\u51e6\u5211\u5834\u306e\u9732\u306b\u6d88\u3048\u308b
p684
I2
sV\u82b1\u604b\u306e\u958b\u82b1
p685
I5
sV\u82b1\u71c3\u3086 \u30e1\u30a4\u30f3\u30c6\u30fc\u30de (Off Voice)
p686
I17
sV\u512a\u3057\u3055\u306b\u6e80\u3061\u305f\u65e5\u5e38
p687
I3
sV\u6587\u5b57\u306e\u8e0a\u308a\u98df\u3044
p688
I6
sV\u3075\u308b\u3055\u3068~\u8429\u306e\u5302\u3044
p689
I5
sV\u30a2\u30a6\u30d5\u30d8\u30fc\u30d9\u30f3
p690
I6
sV\u9732\u6885\u96e8\u306e\u304d\u3089\u3081\u304d
p691
I6
sV\u82b1\u71c3\u3086 \u30e1\u30a4\u30f3\u30c6\u30fc\u30de (Strings ver.)
p692
I13
sV\u82b1\u71c3\u3086 \u30e1\u30a4\u30f3\u30c6\u30fc\u30de (Slow ver.)
p693
I70
sV\u6050\u6016\u3078\u306e\u5730\u9cf4\u308a~\u5927\u9006\u306e\u672c\u61d0
p694
I4
sV\u6674\u308c\u3084\u304b\u306a\u6176\u3073
p695
I3
sV\u82b1\u71c3\u3086\u7d00\u884c2
p696
I2
sV\u547d\u306e\u8f1d\u304d
p697
I4
sV\u6697\u96f2\u30e1\u30e9\u30f3\u30b3\u30ea\u30a2
p698
I3
sV\u5973\u306e\u751f\u304d\u65b9
p699
I20
sV\u5fd7
p700
I5
sV\u8fb0\u8def\u306e\u30c6\u30fc\u30de
p701
I2
sV\u60aa\u610f\u306e\u4f01\u3066~\u5927\u9006\u306e\u5e8f\u7ae0
p702
I3
sV\u5b58\u5ff5\u3001\u5927\u7fa9\u3092\u8b70\u3059
p703
I3
sV\u5b66\u5712\u5929\u56fd
p704
I27
sV\u6226\u4e89\u306b\u99c6\u308a\u7acb\u3066\u305f\u60c5\u5ff5
p705
I2
sV\u8010\u3048\u5207\u308c\u306a\u3044\u307b\u3069\u306e\u75db\u60b2
p706
I3
sV\u4e0d\u673d\u306e\u6b7b
p707
I8
sV\u6d99\u677e
p708
I12
sV\u611b\u306e\u30c6\u30fc\u30de
p709
I3
sV\u96a0\u3057\u6d99
p710
I1
ssV\u8d64\u3061\u3083\u3093\u3068\u4ec6 O.S.T
p711
(dp712
V\u30b5\u30d6\u30fb\u30bf\u30a4\u30c8\u30eb
p713
I3
sV\u4e16\u754c\u3067\u4e00\u756a\u60b2\u3057\u3044\u65f6\u95f4
p714
I4
sV\u5973\u306e\u5b50\u3063\u3066\u4e0d\u601d\u8bae\u306a\u751f\u304d\u7269
p715
I0
sV\u718a\u30ce\u4e95\u7b2c\u4e8c\u4fdd\u80b2\u56ed\u306e\u30c6\u30fc\u30de
p716
I0
sV\u307f\u3093\u306a\u304a\u5bdd\u307f
p717
I0
sV\u98ce\u9e23\u308a
p718
I0
sV\u4f55\u3082\u3067\u304d\u306a\u3044
p719
I5
sV\u4e0d\u5b89\u3068\u4e0d\u6e80\u3068\u54c0\u3057\u3055\u3068
p720
I3
sV\u30de\u30f3\u30de\u30eb\u30b9\u30c8\u30a2\u30fc\u306e\u6b4c
p721
I1
sV\u6728\u6d29\u308c\u65e5
p722
I8
sV\u9633\u306e\u5f53\u305f\u308b\u5ead
p723
I5
sV\u7b11\u9854
p724
I0
sV\u9752\u3044\u304a\u7a7a\u3068\u767d\u3044\u4e91
p725
I1
sV\u60aa\u3044\u79cd\u5b50\u304c\u82bd\u751f\u3048\u308b\u65f6
p726
I1
sV\u6d6e\u304d\u6d6e\u304d\u6c17\u5206
p727
I1
sV\u3044\u3063\u305d\u6012\u3063\u3066\u3057\u307e\u3044\u305f\u3044
p728
I2
sV\u60f3\u3044\u51fa
p729
I1
sV\u30dd\u30c4\u30dd\u30c4\u96e8\u964d\u308a
p730
I0
sV\u5348\u7761
p731
I1
sV\u6728\u6751\u3055\u3093\u5bb6\u306e\u30c6\u30fc\u30de
p732
I0
sV\u60aa\u622f\u7cbe\u795e
p733
I0
sV\u9003\u8d70\u8ff7\u8def
p734
I2
sV\u4f55\u3082\u8a00\u3048\u306a\u3044
p735
I3
sV\u30cb\u30e3\u30f3\u30b3\u30fb\u30b3\u30cb\u30e3\u30f3\u30b3\u4f53\u64cd
p736
I5
sV\u80f8\u306e\u4e2d\u306e\u4f55\u304b
p737
I0
sV\u30a2\u30a4\u30fb\u30ad\u30e3\u30c3\u30c1!
p738
I19
sV\u30db\u30ef\u30c3\u30c4\u30fb\u30b6\u30c3\u30c8!?
p739
I0
sV\u5927\u5909\u3060!
p740
I36
sV\u5b09\u3057\u304f\u3066
p741
I1
sV\u5b88\u3063\u3066\u3042\u3052\u308b
p742
I1
sV\u30ab\u30f3\u30c8\u30ea\u30fc\u30fb\u30a6\u30a9\u30fc\u30af
p743
I0
sV\u718a\u30ce\u4e95\u5e02\u7acb\u7ea2\u5357\u5c0f\u5b66\u6821\u306e\u30c6\u30fc\u30de
p744
I0
sV\u6d99,\u582a\u3048\u3066
p745
I2
sVB.B.B.(\u30a2\u30ec\u30f3\u30b8\u30f4\u30a1\u30fc\u30b8\u30e7\u30f3)\u30c8\u30a5\u30fb\u30b6\u30fb\u30cd\u30af\u30b9\u30c8\u30fb\u30b9\u30c6\u30fc\u30b8(\u30aa\u30ea\u30b8\u30ca\u30eb\u30fb\u30b5\u30a6\u30f3\u30c9\u30c8\u30e9\u30c3\u30af)
p746
I1
sV\u5915\u66ae\u308c\u306e\u5e30\u308a\u9014
p747
I0
sV\u30b4\u30fc!\u30b4\u30fc!\u30b7\u30e3\u30dc\u30f3\u30d5\u30a1\u30a4\u30d6
p748
I0
sV\u30af\u30e9\u30dc\u30c3\u30c1\u4f53\u64cd
p749
I3
sV\u8003\u3048\u3054\u3068
p750
I10
sV\u30d1\u30bf\u30d1\u30bf\u6b69\u884c\u5668
p751
I22
sVB.B.B.(\u30aa\u30fc\u30d7\u30cb\u30f3\u30b0\u30fb\u30c6\u30fc\u30de)
p752
I21
sV\u30d5\u30e9\u30f3\u30b9\u30ef\u30fc\u30ba\u306e\u30c6\u30fc\u30de
p753
I0
sV\u4e91\u306e\u65e5
p754
I1
sV\u8ffd\u5fc6
p755
I1
sV\u30b0\u30c3\u30c9\u30fb\u30e2\u30fc\u30cb\u30f3\u30b0
p756
I0
sV\u30b4\u30f3\u3061\u3083\u3093\u306e\u30c6\u30fc\u30de
p757
I0
sV\u4eca\u65e5\u306f\u304a\u3067\u304b\u3051
p758
I0
sV\u30e6\u30fc(\u30a8\u30f3\u30c7\u30a3\u30f3\u30b0\u30fb\u30c6\u30fc\u30de)
p759
I88
ssS'Corrector Yui O.S.T Folder 1'
p760
(dp761
Vpinchi de arimasuru
p762
I0
sVGrossor no moukou
p763
I0
sVsemarikuru mashu
p764
I1
sVhacha-mecha tsuisou-geki
p765
I0
sVYui no teema
p766
I3
sVyokoku BGM
p767
I9
sVEye-catch
p768
I19
sVhaato biito
p769
I0
sVHappy End
p770
I0
sVoioi...
p771
I0
sVmirakutanarazutai
p772
I0
sVtaisetsuna tomodachi
p773
I1
sVSunshine Girl
p774
I1
sVayashii wana
p775
I0
sVkujira no uta
p776
I1
sVashita e no kobou
p777
I0
sVComnet no sekai e
p778
I0
sVkyousei shuuryou, kimeru wayo!
p779
I0
sVharikitte ikou!
p780
I0
sVochoushi IR
p781
I1
sVkanashisa to yasashisa
p782
I1
sVVirtual Space
p783
I0
sVGrossor no yabou
p784
I0
sVshiawase no huukei
p785
I0
sVdeko-boku conbi
p786
I0
sVikuukan
p787
I1
sVSubtitle
p788
I9
sVComnet no Fairy
p789
I0
sVThe Evening Star
p790
I0
sVmakenai kimochi
p791
I1
sVYui, henshi---n!
p792
I0
sVshiritsu sukurouru-gakuen 1
p793
I0
sVCorrector Initialise!
p794
I0
sVshiritsu sukurouru-gakuen 2
p795
I0
ssVBS\u65f6\u4ee3\u5267\u201c\u51a2\u539f\u30c8\u4f1d\u201d\u30aa\u30ea\u30b8\u30ca\u30eb\u30b5\u30a6\u30f3\u30c9\u30c8...
p796
(dp797
V\u4e00\u9a91\u6253\u3061
p798
I4
sV\u8fd0\u547d
p799
I2
sV\u4e0d\u5409\u306a\u5f71
p800
I0
sV\u6697\u4e91
p801
I0
sV\u6d99
p802
I2
sV\u6b66\u82b8\u8005\u3078\u306e\u9053
p803
I2
sV\u51a2\u539f\u535c\u4f1d \u30e1\u30a4\u30f3\u30c6\u30fc\u30de
p804
I26
sV\u4e71\u6226
p805
I4
sV\u80dc\u5229
p806
I1
sV\u4e00\u65f6\u306e\u5e73\u548c
p807
I3
sV\u522b\u308c
p808
I3
sV\u72c2\u6c17
p809
I1
sV\u3044\u3056\u5bfe\u51b3\u3078
p810
I3
sV\u7d76\u4f53\u7d76\u547d
p811
I1
sV\u56de\u56fd\u4fee\u884c
p812
I5
sV\u65c5\u7acb\u3061\u306e\u65e5
p813
I5
sV\u60b2\u58ee
p814
I2
sV\u4e80\u535c
p815
I2
sV\u65b0\u53f3\u536b\u95e8\u3068\u5de6\u95e8
p816
I3
sV\u5deb\u5973
p817
I1
sV\u8840\u306b\u67d3\u307e\u308b\u624b
p818
I1
sV\u6545\u90f7
p819
I3
sV\u51a2\u539f\u535c\u4f1d \u7eaa\u884c\u306e\u30c6\u30fc\u30de
p820
I12
sV\u9e7f\u4e43
p821
I31
sV\u51b3\u6226
p822
I3
sV\u9e7f\u5c9b\u306e\u592a\u5200
p823
I8
ssV\u5287\u5834\u7248 \u8584\u685c\u9b3c \u7b2c\u4e00\u7ae0 \u4eac\u90fd\u4e71\u821e \u30aa\u30ea\u30b8\u30ca\u30eb...
p824
(dp825
Vtrack1
p826
I22
sVtrack3
p827
I7
sVtrack2
p828
I3
sVtrack5
p829
I33
sVtrack4
p830
I1
sVtrack7
p831
I2
sVtrack6
p832
I5
sVtrack9
p833
I2
sVtrack8
p834
I4
sVtrack20
p835
I3
sVtrack21
p836
I4
sVtrack22
p837
I2
sVtrack23
p838
I17
sVtrack15
p839
I6
sVtrack14
p840
I2
sVtrack17
p841
I3
sVtrack16
p842
I16
sVtrack11
p843
I3
sVtrack10
p844
I2
sVtrack13
p845
I9
sVtrack12
p846
I5
sVtrack19
p847
I5
sVtrack18
p848
I4
ssV\u30c7\u30d3\u30eb\u30de\u30f3 \u8a95\u751f\u7de8/\u5996\u9ce5\u6b7b\u9e97\u6fe1\u7de8
p849
(dp850
V\u660e\u3068\u4e86
p851
I1
sV\u30c7\u30fc\u30e2\u30f3\u4e00\u65cf
p852
I1
sVShow Must Go On
p853
I2
sV\u8ee2\u4f4d
p854
I1
sV\u6700\u7d42\u6226\u4e89\u30fb\u5e8f\u7ae0
p855
I8
sV\u30a8\u30f3\u30c7\u30a3\u30f3\u30b0\u30c6\u30fc\u30de
p856
I5
sV\u305d\u3057\u3066\u967d\u306f\u6607\u308b
p857
I3
sV\u6b7b\u9e97\u6fe1
p858
I2
sV\u95c7\u304b\u3089\u306e\u62db\u304d
p859
I2
sV\u6fc0\u7a81
p860
I2
sVLight It Up
p861
I0
sV\u30aa\u30eb\u30b4\u30fc\u30eb
p862
I0
sV\u6642\u306e\u30e2\u30e9\u30eb
p863
I0
sV\u5486\u54ee
p864
I2
ssVWXIII \u673a\u52a8\u8b66\u5bdf\u30d1\u30c8\u30ec\u30a4\u30d0\u30fc
p865
(dp866
Vdetectives
p867
I1
sVthe other side of her
p868
I1
sVher solitude
p869
I1
sVRyujin
p870
I1
sVTitle
p871
I2
sVsomething beauty
p872
I3
sVserious decision
p873
I1
sVthe last rain
p874
I1
sVtheir daily lives
p875
I4
sVending
p876
I5
sVdarkness besides airport
p877
I1
sVSonata fur Klavier Nr.8-Pathetique Adagio cantabile
p878
I5
sVinpatiants
p879
I0
sVat the institute
p880
I2
sVthe self-defense forces
p881
I1
sVinvisible uneasiness
p882
I0
sVWXIII
p883
I1
ssS'Mobile Suit Gundam 00 Original Soundtrac...'
p884
(dp885
VFighting Forces
p886
I2
sVUnified World
p887
I2
sV00 Gundam
p888
I36
sVKatharon
p889
I2
sVAsh Like Snow (TV Ver.)
p890
I40
sVSecret Maneuver
p891
I1
sVInterception
p892
I5
sVPower Attack
p893
I3
sVExtermination
p894
I2
sVDistortion
p895
I2
sVFRIENDS (TV ver.)
p896
I23
sVThe Devine
p897
I1
sVDetermination
p898
I1
sVAffection
p899
I74
sVStrike
p900
I18
sVRepose
p901
I3
sVThe Ballroom
p902
I3
sVRestart
p903
I10
sVTake-Off
p904
I16
ssS'Utai IV: Reawakening (From "Ghost in the...'
p905
(dp906
VUtai IV: Reawakening (From "Ghost in the Shell") [Steve Aoki Remix]
p907
I4180
ssS'Resident Evil: Vendetta (Original Motion...'
p908
(dp909
VDiego
p910
I1
sVPatricio
p911
I0
sVInfected
p912
I1
sVVendetta \u2013 Main Titles
p913
I4
sVMy Blood
p914
I1
sVChris and Leon \u2013 Alike
p915
I0
sVManhattan
p916
I1
sVZack
p917
I1
sVGas
p918
I1
sVVendetta \u2013 End Titles
p919
I4
sVCerberus
p920
I1
sVThe Final Stage
p921
I1
sVUnleash It!
p922
I1
sVExtreme Battle
p923
I2
sVWorld in Flame
p924
I0
sVRetreat
p925
I1
sVArias \u2013 Lament
p926
I1
sVThe Search
p927
I2
sVRocky Mountains
p928
I1
sVDeath Merchant
p929
I1
sVAbduction
p930
I0
sVMeet Sarah
p931
I0
sVCathy
p932
I1
sVRebecca's Research
p933
I1
sVChris and Leon \u2013 Hideout
p934
I1
sVArias \u2013 Order
p935
I1
sVVaccine
p936
I1
sVAnimality Virus
p937
I0
sVOperation
p938
I5
sVAriego
p939
I1
ssV\u5438\u8840\u59eb\u7f8e\u5915
p940
(dp941
V\u5438\u8840\u59eb\u7f8e\u5915
p942
I27
sV\u51b7\u7fbd\u3072\u3068\u308a(\u30aa\u30ea\u30b8\u30ca\u30eb\u30fb\u30ab\u30e9\u30aa\u30b1)
p943
I14
sV\u51b7\u7fbd\u3072\u3068\u308a
p944
I108
sV\u5438\u8840\u59eb\u7f8e\u5915(\u30aa\u30ea\u30b8\u30ca\u30eb\u30fb\u30ab\u30e9\u30aa\u30b1)
p945
I8
ssS'GHOST IN THE SHELL 2.0 PRIVILEGE DISC: S...'
p946
(dp947
VVIRTUAL CRIME (2.0 VER.)
p948
I3
sV\u8b21III-REINCARNATION (2.0 VER.)
p949
I16
sVSOUND STORY REMIX 2 - remix
p950
I4
sVSOUND STORY REMIX 3 - remix
p951
I6
sV\u8b21II-GHOST CITY (2.0 VER.)
p952
I10
sVSOUND STORY REMIX 1 - remix
p953
I5
sV\u8b21I-MAKING OF A CYBORG (2.0 VER.)
p954
I39
sVSOUND STORY REMIX 4 - remix
p955
I1
sVNIGHTSTALKER (2.0 VER.)
p956
I16
ssS'SOUND of The Sky Crawlers'
p957
(dp958
Vfirst sortie
p959
I10
sVAdler Tag
p960
I19
sVMizuki
p961
I9
sVsurprise attack
p962
I5
sVFoo-ko
p963
I7
sVsecond sortie
p964
I4
sVprivate sortie
p965
I6
sVmain theme_affair(harp)
p966
I32
sVKrakow
p967
I13
sVmain thema_blue fish(orgel)
p968
I24
sVmain theme_opening
p969
I153
sVmain thema_blue fish
p970
I24
sVMarch hare
p971
I6
sVmain theme_affair
p972
I4
sVsail away(vocal)
p973
I54
sVnight sortie
p974
I7
sVmain theme_ending
p975
I87
sVfinal sortie
p976
I13
sVTeacher
p977
I14
sVmain theme_memory
p978
I8
sVdrive-by-wire
p979
I10
ssV NHK\u7279\u96c6\u30c9\u30e9\u30de\u300c\u4e0b\u753a\u30dc\u30d6\u30b9\u30ec\u30fc\u300d\u30aa\u30ea\u30b8\u30ca...
p980
(dp981
V\u304a\u304a\u301c\u3063!?
p982
I0
sV\u76f8\u3082\u5909\u308f\u3089\u305a\u30fb\u30fb\u30fb
p983
I1
sV\u660e\u308b\u3044\u65e5\u5e38
p984
I0
sV\u50b7\u5fc3
p985
I0
sV300\u4e07\u306e\u8acb\u6c42\u66f8
p986
I0
sV\u300c\u4e0b\u753a\u30dc\u30d6\u30b9\u30ec\u30fc\u300d\u30a8\u30f3\u30c9\u30c6\u30fc\u30de Long version
p987
I3
sV\u601d\u3044\u3084\u308b\u5fc3
p988
I0
sV\u5bfe\u7acb
p989
I0
sV\u4f73\u7f8e\u3061\u3083\u3093!?
p990
I0
sV\u307f\u3093\u306a\u306e\u529b
p991
I0
sV\u30dd\u30b8\u30c6\u30a3\u30d6\u7f8e\u6a39
p992
I0
sV\u56e3\u7d50!
p993
I0
sV\u30b9\u30d1\u30a4\u30e9\u30eb
p994
I1
sV\u81ea\u5df1\u5acc\u60aa
p995
I0
sV\u660e\u65e5\u306b\u5411\u304b\u3063\u3066
p996
I0
sV\u5922\u306b\u5411\u304b\u3063\u3066GO!
p997
I2
sV\u3078\u30fb\u305f\u30fb\u308c
p998
I0
sV\u7acb\u3061\u585e\u304c\u308b\u58c1
p999
I0
sV\u7f8e\u6a39\u306e\u30da\u30fc\u30b9\u306b\u4e57\u305b\u3089\u308c\u3066\u30fb\u30fb\u30fb
p1000
I1
sV\u300c\u304a\u306d\u304c\u3044\u3057\u307e\u3059!\u300d
p1001
I0
sV\u4f1d\u3048\u3089\u308c\u306a\u3044\u60f3\u3044
p1002
I2
sV\u5bc4\u308a\u6dfb\u3046\u5fc3
p1003
I0
sV\u300c\u4e0b\u753a\u30dc\u30d6\u30b9\u30ec\u30fc\u300d\u6b21\u56de\u4e88\u544a\u301c\u30a8\u30f3\u30c9\u30c6\u30fc\u30de
p1004
I3
sV\u753a\u5de5\u5834\u306e\u4eba\u3005\u301c\u7d50\u675f\u30fb\u596e\u95d8\u301c
p1005
I0
sVLOVE?
p1006
I0
sV\u300c\u4e0b\u753a\u30dc\u30d6\u30b9\u30ec\u30fc\u300d\u30e1\u30a4\u30f3\u30bf\u30a4\u30c8\u30eb
p1007
I10
ssV\u975e\u516c\u8ba4\u6226\u961f\u30a2\u30ad\u30d0\u30ec\u30f3\u30b8\u30e3\u30fc \u30aa\u30ea\u30b8\u30ca\u30eb\u30fb\u30b5...
p1008
(dp1009
V\u843d\u7740~\u80dc\u5229\u306e\u4f59\u97f5
p1010
I0
sV\u75db\u30a2\u30a4\u30ad\u30e3\u30c3\u30c1
p1011
I22
sV\u5996\u5f02\u305f\u308b\u654c
p1012
I1
sV\u6226\u95d8\u3068\u5984\u60f3\u306e\u679c\u3066\u306b\u89c1\u305f\u68a6
p1013
I23
sV\u54ed\u304d\u54cd\u304f\u60aa\u306e\u5f71
p1014
I0
sV\u307b\u3068\u3070\u3057\u308b\u70ed\u304d\u75db\u9b42
p1015
I5
sV\u5146\u5019~\u58ca\u308c\u3086\u304f\u73b0\u5b9f\u4e16\u754c
p1016
I1
sV\u975e\u516c\u8ba4\u6226\u961f\u30a2\u30ad\u30d0\u30ec\u30f3\u30b8\u30e3\u30fc
p1017
I59
sV\u4f24\u5fc3
p1018
I10
sV\u75c5\u3081\u308b\u75db\u5fc3
p1019
I0
sV\u8b66\u949f
p1020
I0
sV\u61a7\u308c\u306e\u5927\u305d\u308c\u305f\u529b
p1021
I2
sV\u52df\u308b\u60f3\u3044\u3068\u604b\u7231\u30d5\u30e9\u30b0(\u8133\u5185)
p1022
I0
sV\u30a2\u30ad\u30d0\u3067\u306e\u70e6\u60a9\u3068\u5984\u60f3
p1023
I0
sV\u91cc\u75db\u30a2\u30a4\u30ad\u30e3\u30c3\u30c1
p1024
I17
sV\u660e\u65e5\u306f\u30a2\u30ad\u30d0\u306e\u98ce\u304c\u5439\u304f (TV size)
p1025
I12
sV\u51e0\u3064\u3082\u306e\u79d8\u3081\u305f\u75db\u3055
p1026
I0
sV\u5973\u795e~\u4e3d\u3057\u306e\u30ad\u30df
p1027
I0
sV\u5fcd\u8010~\u73b0\u5b9f\u306e\u51b7\u305f\u3055
p1028
I1
sV\u4e27\u5931~\u8ffd\u5fc6\u3068\u306c\u304f\u3082\u308a
p1029
I0
sV\u5927\u4e49\u306f\u5927\u4eea
p1030
I11
sV\u5302\u3044\u305f\u3064\u60aa\u306e\u9999
p1031
I0
sV\u3044\u3064\u3082\u306e\u30a2\u30ad\u30d0\u306e\u663c\u4e0b\u304c\u308a
p1032
I0
sV\u971e\u307f\u3086\u304f\u65e5\u5e38
p1033
I1
sV\u75db\u3055\u306f\u5f3a\u3055!
p1034
I8
sV\u516c\u8ba4\u3078\u306e\u9053
p1035
I2
sV\u9a70\u305b\u308b\u6c17\u82e6\u52b4
p1036
I0
sV\u767d\u65e5\u306b\u5fcd\u3073\u5bc4\u308b\u60aa\u306e\u8db3\u97f3
p1037
I0
sV\u60a0\u3005\u305f\u308b\u79cb\u53f6\u539f
p1038
I1
sV\u7b56\u7565\u3001\u4e8b\u4ef6\u306e\u5146\u3057
p1039
I0
sV\u75db\u304f\u52a0\u901f\u3059\u308b\u9b42
p1040
I4
sV\u6483\u3066MMZ~\u5984\u60f3\u4e16\u754c\u3078!
p1041
I1
sV\u6253\u3061\u306e\u3081\u3055\u308c\u305f\u5fc3
p1042
I0
sV\u547b\u308b\u80dc\u5229\u306e\u30d5\u30e9\u30b0
p1043
I23
ssV\u300c\u706b\u6028\u30fb\u5317\u306e\u82f1\u96c4 \u30a2\u30c6\u30eb\u30a4\u4f1d\u300d\u30aa\u30ea\u30b8\u30ca\u30eb\u30b5...
p1044
(dp1045
V\u8766\u5937\u8ecd
p1046
I0
sV\u963f\u5f16\u6d41\u70ba\u306e\u5358\u72ec\u884c\u52d5
p1047
I2
sV\u5144\u59b9\u611b
p1048
I0
sV\u30e4\u30de\u30c8\u884c\u8ecd
p1049
I0
sV\u5de8\u5927\u306a\u6050\u6016
p1050
I1
sV\u5e73\u548c
p1051
I1
sV\u5bfe\u5cd9
p1052
I0
sV\u4e07\u6bd4\u53e4\u767a\u898b
p1053
I0
sV\u963f\u5f16\u6d41\u70ba\u306e\u6226\u8853
p1054
I2
sV\u7d50\u5a5a
p1055
I3
sV\u5742\u4e0a\u7530\u6751\u9ebb\u5442
p1056
I0
sV\u8766\u5937\u3078\u306e\u601d\u3044
p1057
I7
sV\u82e6\u60a9\u306e\u6c7a\u65ad
p1058
I4
sV\u8ecd\u4e8b\u8a13\u7df4
p1059
I5
sV\u6b63\u7fa9
p1060
I2
sV\u5fa9\u6d3b\u306e\u5e0c\u671b
p1061
I9
sV\u4f5c\u6226\u4f1a\u8b70
p1062
I3
sV\u4f73\u5948
p1063
I1
sV\u884c\u9032
p1064
I0
sV\u7d76\u4f53\u7d76\u547d
p1065
I1
sV\u963f\u5f16\u6d41\u70ba\u306e\u30c6\u30fc\u30de
p1066
I17
sV\u6355\u865c
p1067
I0
sV\u60b2\u3057\u3044\u904b\u547d
p1068
I2
sV\u53cb\u60c5
p1069
I2
sV\u5409\u5831
p1070
I1
sV\u60aa\u3044\u4e88\u611f
p1071
I0
sV\u5e73\u57ce\u4eac
p1072
I0
sV\u5947\u8972\u653b\u6483
p1073
I1
sV\u5922\u306e\u6697\u793a
p1074
I0
sV\u963f\u5f16\u6d41\u70ba\u306e\u60b2\u3057\u307f
p1075
I4
sV\u6697\u96f2
p1076
I0
sV\u52dd\u5229
p1077
I0
sV\u518d\u4f1a
p1078
I1
ssV\u30e2\u30d6\u30b5\u30a4\u30b3100 Original Soundtrack
p1079
(dp1080
V\u5f71\u5c71\u5144\u5f1f\u306e\u78ba\u57f7\u30fb\u898b\u3048\u306a\u3044\u58c1
p1081
I29
sV\u65e5\u672c\u306e\u4e0d\u826f
p1082
I21
sV\u751f\u5f92\u4f1a\u30fb\u51b7\u9177\u306a\u5fb3\u5ddd
p1083
I16
sV\u8089\u4f53\u6539\u9020\u90e8!
p1084
I77
sV\u6cb8\u304d\u51fa\u3059\u30e2\u30d6\u306e\u30b9\u30c8\u30ec\u30b94
p1085
I3
sV\u30a8\u30af\u30dc\u306e\u60aa\u610f
p1086
I7
sV\u6697\u7530\u30c8\u30e1\u25a1
p1087
I5
sV\u907a\u5fd7\u9ed2\u306e\u4e2d\u8eab
p1088
I13
sV\u30de\u30b8\u304b\u3088\u2026
p1089
I23
sV\u30b2\u30f3\u3055\u3093\u306e\u6182\u9b31
p1090
I3
sV\u30e9\u30d6\u30ec\u30bf\u30fc\u306e\u7f60
p1091
I4
sV\u5f71\u5c71\u5144\u5f1f\u306e\u78ba\u57f7\u30fb\u5144\u5f1f\u306e\u7d46
p1092
I39
sV\u4e00\u4ef6\u843d\u7740
p1093
I65
sV\u51b4\u3048\u306a\u3044\u65e5\u5e38
p1094
I15
sV\u8a87\u5c71\u53c2\u4e0a
p1095
I7
sV\u30c6\u30eb\u30fb\u9ad8\u3076\u308b\u8d85\u80fd\u529b\u306e\u30c6\u30fc\u30de
p1096
I52
sV\u8133\u611f\u96fb\u6ce2\u90e8\u306e\u3042\u304c\u304d
p1097
I19
sV\u30e2\u30d6\u30fb\u9664\u970a
p1098
I92
sV\u201c (\u7b11) \u6559\u201d\u6559\u7956~\u30a8\u30af\u30dc~
p1099
I14
sV\u529b\u306b\u7fa4\u304c\u308b\u4eba\u3005
p1100
I6
sV\u5fcd\u3073\u5bc4\u308b\u970a
p1101
I8
sV\u970a\u5e7b\u306e\u30bf\u30fc\u30f3!
p1102
I19
sV\u30a8\u30af\u30dc\u306e\u672c\u6027
p1103
I44
sV\u9727\u85e4\u306e\u546a\u3044\u3068\u5d29\u58ca
p1104
I4
sVGOGO\u970a\u5e7b!
p1105
I50
sV\u722a\u306e\u5c11\u5e74\u30fb\u30b7\u30e7\u30a6
p1106
I27
sV\u30e2\u30d6\u30fb\u611f\u60c5\u306e\u7206\u767a
p1107
I409
sV\u30e2\u30d6\u30fb\u529b\u306e\u89e3\u653e
p1108
I55
sV\u4e16\u754c\u5f81\u670d\u30fb\u722a
p1109
I9
sV\u30b9\u30de\u30a4\u30eb\u30de\u30b9\u30af
p1110
I8
sV\u970a\u306e\u5302\u3044
p1111
I47
sV\u970a\u5e7b\u30fb\u8a50\u6b3a\u5e2b\u306e\u30c6\u30fc\u30de
p1112
I152
sV\u521d\u604b\u306e\u6c17\u6301\u3061!
p1113
I31
sV\u67d3\u307f\u51fa\u3059\u60aa\u610f
p1114
I50
sV\u30a2\u30ed\u30de\u66b4\u8d70\u7279\u6025
p1115
I17
sV\u6016\u3044\u3082\u306e\u5acc\u3044
p1116
I11
sV\u5618\u3068\u8aa0
p1117
I5
sV\u30c8\u30e9\u30a6\u30de
p1118
I13
sV\u970a\u5e7b\u306e\u8a00\u8449
p1119
I45
sV\u5bfa\u86c7\u767b\u5834!?
p1120
I11
sV\u907a\u5fd7\u9ed2\u306e\u6025\u8972
p1121
I14
sV\u6d88\u3048\u884c\u304f\u8133\u611f\u96fb\u6ce2\u90e8
p1122
I18
sV\u6cb8\u304d\u51fa\u3059\u30e2\u30d6\u306e\u30b9\u30c8\u30ec\u30b92
p1123
I7
sV\u6cb8\u304d\u51fa\u3059\u30e2\u30d6\u306e\u30b9\u30c8\u30ec\u30b93
p1124
I4
sV\u8089\u4f53\u6539\u9020\u90e8\u53c2\u4e0a!
p1125
I41
sV\u6cb8\u304d\u51fa\u3059\u30e2\u30d6\u306e\u30b9\u30c8\u30ec\u30b91
p1126
I6
sV\u7dca\u5f35\u30fb\u30e2\u30d6\u306e\u30c9\u30ad\u30c9\u30ad
p1127
I24
sV\u5bc6\u88cf\u30b0\u30eb\u30fc\u30d7\u306e\u7dcf\u529b!
p1128
I33
sV\u3055\u3088\u3046\u306a\u3089\u30fb\u30a8\u30af\u30dc
p1129
I17
sV\u546a\u8853\u30af\u30e9\u30c3\u30b7\u30e5!
p1130
I8
sV\u5730\u7403\u5916\u751f\u547d\u4f53\u3068\u306e\u4ea4\u4fe1\u3057\u305f\u3044\u306e!
p1131
I13
sV\u30e6\u30eb\u3044\u99c6\u3051\u5f15\u304d
p1132
I17
sV\u30b9\u30de\u30a4\u30eb\u30ea\u30fc\u30c0\u30fc
p1133
I6
sV\u4e88\u544a\u66f2\u30fb\u8972\u3044\u6765\u308b\u6b21\u306a\u308b\u5371\u6a5f!
p1134
I10
sV\u5f71\u5c71\u5144\u5f1f\u306e\u78ba\u57f7\u30fb\u5ac9\u59ac
p1135
I14
sV\u7acb\u3061\u585e\u304c\u308b\u6575
p1136
I7
sV\u52e7\u8a98\u8005\u201c (\u7b11) \u6559\u201d
p1137
I23
sV\u30c8\u30e1\u306e\u6c17\u5408\u3044!
p1138
I8
sV\u30ea\u30d5\u30ec\u30a4\u30f3\u30dc\u30fc\u30a4 -TV size-
p1139
I78
sV\u843d\u3061\u6b66\u8005
p1140
I7
sV\u5171\u95d8\u3068\u9054\u6210\u611f
p1141
I34
sV\u4e16\u754c\u5f81\u670d\u3092\u81e8\u3080\u3082\u306e
p1142
I8
sV\u970a\u5e7b\u30fb\u8a71\u8853\u62bc\u3057
p1143
I18
sV\u6700\u5f8c\u306e\u4ed5\u4e8b\u30fb\u30c4\u30c1\u30ce\u30b3
p1144
I13
sV\u970a\u306e\u60f3\u3044
p1145
I13
sV99 (TV EDIT)
p1146
I218
sV\u970avs\u30bd\u30eb\u30c8\u30b9\u30d7\u30e9\u30c3\u30b7\u30e5!
p1147
I10
sV\u30e2\u30d6\u306e\u6c7a\u610f!~\u8089\u4f53\u6539\u9020\u3057\u305f\u3044!~
p1148
I24
ssV\u201c\u3081\u305e\u3093\u4e00\u523b\u201d\u30b3\u30f3\u30d7\u30ea\u30fc\u30c8\u30fb\u30df\u30e5\u30fc\u30b8\u30c3\u30af...
p1149
(dp1150
V\u68a6\u4e00\u591c\u305d\u306e2
p1151
I2
sV\u4e00\u523b\u9986\u306e\u30c6\u30fc\u30de
p1152
I1
sV\u79cb \u305d\u306e2
p1153
I2
sV\u604b\u7231\u72c2\u65f6\u4ee3
p1154
I0
sVINSIDE OF YOUR LOVE
p1155
I3
sV\u56db\u8c37\u306e\u601d\u60d1\u518d\u3073
p1156
I1
sV\u4e09\u9e70.\u4e94\u4ee3!!
p1157
I2
sV\u5feb\u6674\u3067\u30b4\u30e1\u30f3\u306d!
p1158
I1
sV\u60b2\u3057\u307f\u3088\u3053\u3093\u306b\u3061\u306f(\u30a4\u30f3\u30b9\u30c82)
p1159
I2
sV\u4e8b\u4ef6
p1160
I0
sV\u6625\u98ce\u306e\u8bf1\u60d1
p1161
I1
sV\u54cd\u5b50 \u5f85\u3061\u307e\u3059
p1162
I0
sV\u3082\u3046\u5c11\u3057\u8fdc\u304f
p1163
I7
sVCRYSTAL HEART
p1164
I2
sV\u5bb4\u4f1a\u8c22\u7d76
p1165
I4
sVI LOVE YOU
p1166
I4
sV\u68a6\u65f6\u96e8
p1167
I5
sV\u5370\u7b3c\u306e\u30c6\u30fc\u30de
p1168
I7
sV\u30d6\u30ea\u30c3\u30b8-A
p1169
I4
sV\u30b5\u30cb\u30fc.\u30b7\u30e3\u30a4\u30cb\u30fc.\u30e2\u30fc\u30cb\u30f3\u30b0
p1170
I6
sV\u4e88\u611f(\u30a4\u30f3\u30b9\u30c83)
p1171
I1
sV\u4e00\u306e\u702c\u3055\u3093\u306f\u660e\u65e5\u3082\u884c\u304f
p1172
I3
sV\u5f31\u866b
p1173
I1
sV\u3068\u304d\u3081\u304f2\u4eba\u306e\u591c
p1174
I0
sV\u30d6\u30ea\u30c3\u30b8 \u305d\u306e6
p1175
I21
sV\u30d6\u30ea\u30c3\u30b8 \u305d\u306e7
p1176
I12
sV\u4e09\u9e70\u306e\u30b9\u30de\u30c3\u30b7\u30e5
p1177
I1
sV\u771f\u591c\u4e2d\u306e\u8bbf\u95ee\u8005
p1178
I4
sV\u30d6\u30ea\u30c3\u30b8\u305d\u306e5B
p1179
I14
sVAMERICAN WOMAN
p1180
I0
sV\u4e0d\u601d\u8bae\u306a\u884c\u8fdb
p1181
I1
sV\u3044\u304d\u306a\u308a\u7ba1\u7406\u4eba
p1182
I1
sV\u30d6\u30ea\u30c3\u30b8 \u305d\u306e8
p1183
I11
sV\u30d6\u30ea\u30c3\u30b8 \u305d\u306e9
p1184
I13
sV\u5bb4\u4f1a\u306f\u7384\u95a2\u3067
p1185
I3
sV\u4e0d\u601d\u8bae\u306a\u304a\u5ba2
p1186
I4
sV\u5fae\u70ed\u306a\u30ad.\u30d6.\u30f3(\u30ea\u30df\u30c3\u30af\u30b9.\u30d0\u30fc\u30b8\u30e7\u30f3) - remix
p1187
I1
sV\u5927\u5909\u3060
p1188
I12
sV\u60b2\u3057\u307f\u3088\u3053\u3093\u306b\u3061\u306f
p1189
I6
sV\u96e8\u3084\u3069\u308a
p1190
I4
sV\u590f\u306e\u4e91
p1191
I9
sV\u884c\u304d\u304c\u3051\u306e\u99c4\u72ac
p1192
I3
sV\u7247\u601d\u3044
p1193
I2
sV\u3072\u3068\u308a\u306e\u591c
p1194
I3
sVWEDDING DRESS
p1195
I0
sV\u30b7.\u30cd.\u30de
p1196
I48
sV\u56db\u8c37\u306e\u60aa\u3075\u3056\u3051
p1197
I0
sV\u5909\u308f\u3063\u305f\u76f2\u60f3
p1198
I2
sV\u30b5\u30e8\u30ca\u30e9\u306e\u7d20\u63cf(\u30c7\u30c3\u30b5\u30f3)
p1199
I11
sV\u4e0d\u5b89
p1200
I0
sV\u54cd\u5b50\u306e\u6c17\u6301\u3061\u3092\u786e\u304b\u3081\u305f\u304f\u3066
p1201
I2
sV\u4e88\u611f(\u30a4\u30f3\u30b9\u30c82)
p1202
I5
sV\u6731\u7f8e\u59cb\u307e\u308b
p1203
I2
sV\u5343\u9e1f\u8db3
p1204
I3
sV\u7c89\u96ea\u964d\u308b\u5b63\u8282
p1205
I1
sV\u4e8c\u9636\u5efa\u3066\u306e\u79cb
p1206
I5
sV\u785d\u5b50\u306e\u30ad\u30c3\u30b9
p1207
I17
sV\u56db\u8c37\u306e\u60aa\u3060\u304f\u307f
p1208
I6
sVSPACE WAGON
p1209
I3
sV\u3082\u306e\u60f3\u3044(\u522b\u30c6\u30a4\u30af)
p1210
I2
sV\u304b\u3051\u8db3 \u305d\u306e3
p1211
I6
sV\u660e\u65e5\u83dc\u306e\u77b3
p1212
I1
sV\u6253\u3061\u5bc4\u305b\u308b\u4e0d\u5b89
p1213
I1
sV\u4e88\u611f(\u30a4\u30f3\u30b9\u30c8)
p1214
I3
sV\u30d7\u30ed\u30dd\u30fc\u30ba
p1215
I4
sV\u68a6\u4e2d\u306e\u30d5\u30a1\u30f3\u30bf\u30b8\u30fc\u305d\u306e2
p1216
I0
sV\u592a\u9633\u306b\u3053\u3051\u308d
p1217
I1
sV\u30d6\u30ea\u30c3\u30b8-K1
p1218
I7
sV\u30d6\u30ea\u30c3\u30b8-K2
p1219
I10
sV\u30d6\u30ea\u30c3\u30b8-K3
p1220
I10
sV\u4e0d\u6c17\u5473\u306a\u6c17\u914d
p1221
I1
sV\u3068\u304d\u3081\u304d
p1222
I6
sV\u30d6\u30ea\u30c3\u30b8 \u305d\u306e10
p1223
I10
sV\u30d6\u30ea\u30c3\u30b8 \u305d\u306e11
p1224
I5
sV\u51ac\u305d\u306e2
p1225
I5
sV\u7eb8\u5439\u96ea
p1226
I1
sVIN THE MOONLIGHT
p1227
I1
sV\u5e30\u308a\u9053
p1228
I3
sV\u591c\u306e\u96e8
p1229
I8
sVQUEEN OF SWORDS
p1230
I3
sV\u4ea4\u54cd\u66f2\u201c\u52a8\u4e71\u201d\u7b2c\u4e00\u697d\u7ae0\u3088\u308a
p1231
I1
sV\u4e09\u9e70\u306e\u30b5\u30e8\u30ca\u30e9
p1232
I6
sV\u9633\u3060\u307e\u308a\u306e\u544a\u767d
p1233
I1
sV\u30bb\u30fc\u30e9\u30fc\u670d\u3068\u673a\u95a2\u94f3
p1234
I13
sV\u590f\u306e\u4e91 \u305d\u306e2
p1235
I4
sV\u65f6\u8ba1\u5742\u3092\u767b\u308c\u3070
p1236
I7
sV\u60e3\u4e00\u90ce\u3068\u99c6\u3051\u3063\u3053
p1237
I1
sV\u613f\u3044
p1238
I1
sV\u4e59\u5973\u306e\u30e9\u30b8\u30aa\u4f53\u64cd
p1239
I0
sV\u3075\u305f\u305f\u3073\u306e
p1240
I2
sVGARDEN OF LOVE
p1241
I9
sV\u68a6\u4e00\u591c
p1242
I6
sV\u68a6\u829d\u5c45
p1243
I8
sV\u7a93\u8fba\u3067\u3072\u3068\u308a
p1244
I1
sV\u3042\u3057\u305f\u6674\u308c\u308b\u304b
p1245
I41
sV\u80f8\u9a12\u304e
p1246
I8
sV\u4fdd\u80b2\u306f\u30b9\u30dd\u30fc\u30c4
p1247
I1
sV\u5c9a\u306e\u524d\u3076\u308c
p1248
I1
sV\u3053\u305a\u3048\u306e\u30c7\u30fc\u30c8
p1249
I0
sV\u96e8\u3084\u3069\u308a\u305d\u306e2
p1250
I4
sV\u5bb4\u4f1a\u30d0\u30ab\u8e0a\u308a
p1251
I2
sV\u5742\u306e\u9014\u4e2d\u306e\u4e00\u756a\u661f
p1252
I7
sV\u60e3\u4e00\u90ce\u3092\u5fd8\u308c\u305f\u304f\u3066
p1253
I1
sV\u4e94\u4ee3\u306e\u5c31\u804c
p1254
I0
sV\u60b2\u3057\u307f\u3088\u3053\u3093\u306b\u3061\u306f(\u30a4\u30f3\u30b9\u30c83)
p1255
I3
sV\u663c\u4e0b\u304c\u308a\u306e\u68a6
p1256
I0
sV\u30a6\u30a7\u30b9\u30bf\u30f3.\u30a2\u30b2\u30ef\u30f3\u30bf\u30f3
p1257
I0
sV\u3082\u3046!\u6625\u3067\u3059\u306d
p1258
I3
sV\u30ec\u30c3\u30c4.\u30ad\u30c3\u30b9
p1259
I0
sV\u5149\u308b\u98ce
p1260
I5
sVYOU AND I
p1261
I2
sV\u30a8\u30f3\u30c9\u30ec\u30b9
p1262
I3
sV\u304a\u5143\u6c17\u3067\u3059\u3088\u2026
p1263
I6
sV\u60b2\u3057\u307f\u3088\u3053\u3093\u306b\u3061\u306f(\u30a4\u30f3\u30b9\u30c8)
p1264
I14
sV\u4e0d\u6c17\u5473\u306a\u6c17\u914d\u305d\u306e2
p1265
I1
sV\u30e1\u30ea\u30fc\u30b4\u30fc\u30e9\u30a6\u30f3\u30c9\u306e\u3075\u305f\u308a
p1266
I3
sV\u307e\u3076\u3057\u3044\u6ce2\u3057\u3076\u304d
p1267
I1
sV\u4e00\u523b\u9986\u306b\u30aa\u30d0\u30b1\u304c\u51fa\u308b\u30be!
p1268
I0
sV\u30e1\u30ed\u30c7\u30a3\u30fc
p1269
I21
sV\u4e94\u4ee3\u304c\u54cd\u5b50\u3092\u60f3\u3046\u65f6
p1270
I2
sVWIDOW'S LOVER
p1271
I1
sV\u4e94\u4ee3\u306e\u5fcd\u3073\u8db3
p1272
I1
sV\u30c6\u30cb\u30b9\u30dc\u30fc\u30eb\u3068\u5642\u8bdd
p1273
I4
sV\u96fe\u7b1b\u304c\u4ffa\u3092\u547c\u3093\u3067\u3044\u308b
p1274
I4
sV\u3068\u3053\u3068\u3093I LOVE YOU
p1275
I4
sV\u4e88\u611f
p1276
I30
sV\u30ad\u30c3\u30b9\u306e\u3042\u308b\u60c5\u666f
p1277
I1
sVManbo No.5
p1278
I12
sV\u54cd\u5b50\u3055\u3093\u3001\u304a\u624b\u3092\u3069\u3046\u305e
p1279
I1
sV\u685c\u306e\u82b1\u54b2\u304f\u5b63\u8282
p1280
I2
sV\u68a6\u306e\u4e2d\u306e\u68a6
p1281
I1
sV\u8d70\u308c\u4e00\u306e\u702c\u592b\u5987
p1282
I0
sV\u308f\u308b\u3044\u7656
p1283
I3
sV\u5317\u306e\u4e00\u523b\u9986\u306f\u2026\u96e8
p1284
I0
sV\u30d6\u30ea\u30c3\u30b8\u305d\u306e11
p1285
I5
sVONE TRACK MIND
p1286
I3
sV\u30b2\u30c3\u30c8.\u30c0\u30a6\u30f3
p1287
I4
sV\u590d\u96d1\u591c
p1288
I0
sV\u30d6\u30ea\u30c3\u30b8\u305d\u306e3
p1289
I15
sV\u30d6\u30ea\u30c3\u30b8\u305d\u306e2
p1290
I12
sV\u30d6\u30ea\u30c3\u30b8\u305d\u306e1
p1291
I15
sV\u30d6\u30ea\u30c3\u30b8\u305d\u306e5
p1292
I4
sV\u30d6\u30ea\u30c3\u30b8\u305d\u306e4
p1293
I18
sV\u4e0d\u6c17\u5473\u306a\u6c17\u914d\u305d\u306e2B
p1294
I1
sV\u79cb
p1295
I24
sV\u5c0f\u8131\u8d70\u306e\u30c6\u30fc\u30de
p1296
I2
sV\u60e3\u4e00\u90ce\u3068\u30cf\u30a8
p1297
I0
sV\u4e00\u306e\u702c\u3055\u3093\u306f\u4eca\u65e5\u3082\u884c\u304f
p1298
I0
sV\u60b2\u3057\u307f
p1299
I4
sV\u30d5\u30a1\u30f3\u30bf\u30b8\u30fc\u30d4\u30ab\u30bd
p1300
I26
sV\u7231.\u591c\u660e\u3051\u524d
p1301
I8
sV\u4eca\u5ea6\u3082\u9045\u523b\u3060\u2026
p1302
I0
sVTHE WIND IN YOUR HAIR
p1303
I3
sV\u6c34\u76c3
p1304
I3
sV\u5e30\u308a\u9053 ?
p1305
I4
sV\u3082\u306e\u60f3\u3044
p1306
I0
sV\u54cd\u5b50\u3055\u3093\u2026!!
p1307
I1
sV\u3042\u3057\u305f\u6674\u308c\u308b\u304b \u30a4\u30f3\u30c8\u30ed
p1308
I1
sV\u6238\u60d1\u3044\u30ed\u30de\u30f3\u30b9
p1309
I0
sV\u30d3\u30ae\u30f3.\u30b6.\u30ca\u30a4\u30c8
p1310
I36
sV\u96e8\u3042\u304c\u308a
p1311
I1
sV\u60e3\u4e00\u90ce\u3055\u3093\u3063!!
p1312
I3
sV\u5e30\u3089\u3056\u308b\u5f7c
p1313
I0
sV\u5e78\u305b\u306a\u3072\u3068\u3068\u304d
p1314
I1
sV\u3056\u307e\u3042\u307f\u308d?!
p1315
I3
sV\u6708\u3068\u30ae\u30bf\u30fc
p1316
I0
sV\u30b5\u30cb\u30fc \u30b7\u30e3\u30a4\u30cb\u30fc \u30e2\u30fc\u30cb\u30f3\u30b0
p1317
I20
sV\u68a6\u306e\u4e2d
p1318
I4
sV\u4e7e\u676f!!
p1319
I19
sV\u6ce3\u304b\u305b\u3066
p1320
I4
sV\u30cf\u30fc\u30c8\u30d3\u30fc\u30c8
p1321
I5
sV\u30d5\u30a1\u30f3\u30bf\u30b8\u30fc(\u30a4\u30f3\u30b9\u30c8)
p1322
I4
sV\u304b\u3051\u8db3
p1323
I5
sV\u6681\u306b\u949f\u306f\u9e23\u308b
p1324
I12
sVCORACAO
p1325
I2
sV\u30d6\u30ea\u30c3\u30b8
p1326
I8
sV\u70df\u304c\u76ee\u306b\u3057\u307f\u308b
p1327
I2
sV\u56db\u8c37\u306e\u601d\u60d1
p1328
I1
sV\u67af\u53f6\u821e\u3044\u6563\u308b\u5b63\u8282
p1329
I5
sV\u68a6\u306e\u5165\u53e3\u3078\u2026
p1330
I3
sV\u3064\u3089\u3044\u3051\u3069
p1331
I4
sV\u771f\u591c\u4e2d\u306e\u304a\u6563\u6b69
p1332
I1
sV\u3057\u3042\u308f\u305b\u66f2\u7ebf
p1333
I1
sV\u30d5\u30a9\u30ed-.\u30e6\u30fc
p1334
I8
sV\u6625
p1335
I9
sV\u4e0d\u5b89\u306a\u6d6a\u4eba\u751f\u6d3b
p1336
I2
sV\u9759\u304b\u306b\u786e\u304b\u306b\u6625\u304c\u304d\u305f
p1337
I1
sV\u307b\u306e\u307c\u306e\u3057\u305f\u5348\u540e
p1338
I0
sVS0METHING IN THE AIR
p1339
I3
sV\u30d6\u30ea\u30c3\u30b8~\u30d6\u30ea\u30ad\u306e\u30e9\u30c3\u30d1~
p1340
I4
sV\u51ac
p1341
I10
sV\u4eca\u65e5\u306f\u30b9\u30dd\u30fc\u30c4\u65e5\u548c
p1342
I1
sV\u597d\u304d\u3055
p1343
I40
sV\u635c\u3057\u7269\u306f\u306a\u3093\u3067\u3057\u3087\u306d
p1344
I4
sV\u5915\u66ae\u308c
p1345
I7
sV\u4e0d\u601d\u8bae\u306a\u304a\u5ba2 \u305d\u306e2
p1346
I1
sV\u68a6\u4e2d\u306e\u30d5\u30a1\u30f3\u30bf\u30b8\u30fc
p1347
I0
sV\u6885\u9152\u5a46\u3042
p1348
I4
sV\u30a2\u30ed\u30fc\u30f3.\u30a2\u30b2\u30a4\u30f3
p1349
I32
sV\u98ce\u306e\u30b7\u30f3\u30d5\u30a9\u30cb\u30fc
p1350
I2
sV\u6025\u3052\u54cd\u5b50\u3078
p1351
I4
sVI NEED HER
p1352
I0
sV\u89c1\u4e0a\u3052\u3066\u3054\u3089\u3093\u591c\u7a7a\u306e\u6708\u3092
p1353
I1
sVGRANDMOTHER
p1354
I2
sV\u65f6\u4ee3\u304a\u304f\u308c\u306e\u9152\u573a
p1355
I16
sV\u6e38\u6b69\u9053
p1356
I1
sV\u99c6\u3051\u8db3 \u305d\u306e2
p1357
I1
sVSWEET DREAM
p1358
I1
sV\u304a\u5f01\u5f53\u3068\u30db\u30a6\u30ad
p1359
I5
sVTRY YOUR LUCK AGAIN
p1360
I4
sV\u5f31\u866b\u305d\u306e2
p1361
I2
sVPIECES OF EIGHT
p1362
I1
sV\u624b\u76f8
p1363
I4
sV\u98ce\u306e\u30b7\u30f3\u30d5\u30a9\u30cb\u30fc \u305d\u306e2
p1364
I1
sV\u663c\u4e0b\u308a\u306e\u5996\u7cbe
p1365
I5
sV\u6731\u7f8e\u306e\u30cf\u30d6\u30e9\u30b7
p1366
I0
sV\u6625\u306e\u5c9a\u306e\u591c\u306e\u624b\u54c1\u5e08
p1367
I5
sV\u4e0d\u601d\u8bae\u306a\u6c17\u5206
p1368
I1
sV\u697d\u3057\u3044\u304a\u6563\u6b69
p1369
I4
sVSKIN DEEP
p1370
I4
sV\u9633\u3060\u307e\u308a
p1371
I15
sV\u54cd\u5b50\u306e\u60b2\u3057\u307f
p1372
I1
sV\u30d7\u30fc\u30eb\u306b\u54b2\u304f\u82b1
p1373
I1
sV\u8679
p1374
I2
sVFINGER DANCIN
p1375
I6
sV\u78a7\u3044\u77b3\u306e\u30a8\u30ea\u30b9
p1376
I17
sV6.6.6
p1377
I3
sV\u30cf\u30c3\u30d4\u30fc\u30b9\u30c6\u30c3\u30d7
p1378
I1
sV\u3042~\u60c5\u3051\u306a\u3084
p1379
I0
ssV\u300e\u5200\u5263\u4e71\u821e-\u82b1\u4e38-\u300f\u30aa\u30ea\u30b8\u30ca\u30eb\u30fb\u30b5\u30a6\u30f3\u30c9\u30c8...
p1380
(dp1381
V\u5200\u5263\u30db\u30b9\u30c8
p1382
I93
sV\u512a\u3057\u3055\u304b\u3089\u306e\u6559\u8a13
p1383
I20
sV\u77ed\u518a\u306b\u9858\u3044\u3092
p1384
I56
sV\u96ea\u89e3\u3051
p1385
I71
sV\u3010\u935b\u5200\u30fb\u4e00\u671f\u4e00\u632f\u3011
p1386
I389
sV\u5200\u5263\u305f\u3061\u306e\u5e30\u9084
p1387
I20
sV\u3070\u308c\u308b!?
p1388
I46
sV\u51fa\u9663
p1389
I82
sV\u7b11\u3044\u58f0
p1390
I26
sV\u512a\u52e2
p1391
I28
sV\u5200\u5263\u3088\u308a\u751f\u307e\u308c\u3057\u3082\u306e
p1392
I46
sV\u306e\u3093\u3073\u308a
p1393
I33
sV\u5185\u756a
p1394
I105
sV\u5200\u5263\u306e\u672c\u5206
p1395
I25
sV\u5be9\u795e\u8005
p1396
I185
sV\u4e0d\u7a4f
p1397
I157
sV\u30d8\u30bf\u306a\u732a\u53e3
p1398
I53
sV\u845b\u85e4
p1399
I25
sV\u771f\u5263\u5fc5\u6bba
p1400
I167
sV\u6210\u9577
p1401
I27
sV\u6c7a\u5225
p1402
I33
sV\u4e0d\u53ef\u89e3
p1403
I80
sV\u5fae\u7b11\u307e\u3057\u3044\u65e5\u5e38
p1404
I68
sV\u7f85\u91dd\u76e4
p1405
I62
sV\u51fa\u9663\u6e96\u5099
p1406
I50
sV\u3010\u935b\u5200\u3011
p1407
I122
sV\u5144\u5f1f\u306e\u611b
p1408
I38
sV\u30c9\u30bf\u30d0\u30bf
p1409
I163
sV\u5947\u8972
p1410
I37
sV\u5f37\u6575\u73fe\u308b
p1411
I19
sV\u4eca\u65e5\u3082\u82b1\u4e38!
p1412
I111
sV\u7dca\u5f35
p1413
I21
sV\u6d41\u308c\u661f
p1414
I39
sV\u6f5c\u5165
p1415
I7
sV\u672c\u4e38\u6848\u5185
p1416
I48
sV\u9a5a\u304b\u305b\u3088\u3046!
p1417
I54
sV\u4fe1\u9577\u306e\u6700\u671f
p1418
I36
sV\u723d\u3084\u304b\u306a\u6c17\u6301\u3061
p1419
I19
ssV\u4e03\u5251 \u7535\u5f71\u539f\u58f0\u5927\u789f
p1420
(dp1421
V\u8840\u6e85\u5c0f\u6eaa (Flute In Danger)
p1422
I13
sV\u5251\u5982\u5c71,\u6c14\u5982\u8679
p1423
I199
sV\u957f\u767d\u5c71\u6765\u5ba2 (Woman From Yonder)
p1424
I5
sV\u6ee1\u76ee\u82cd\u5937
p1425
I17
sV\u516c\u5ba1\u4e0e\u56f4\u57ce
p1426
I20
sV\u9752\u5e72\u96be\u65ad,\u60c5\u7f18\u6613\u4e86 (The Final Sword Battle,The Dragon Vs The Transience)
p1427
I16
sV\u5c60\u6740\u4e50\u7ae0 (Massacre Rhapsody)
p1428
I57
sV\u4eba\u95f4\u6709\u6b63\u6c14
p1429
I76
sV\u6b7b\u524d\u5e26\u4fe1
p1430
I3
sV\u653e\u9a6c
p1431
I19
sV\u671b\u4e61/\u96fe\u9501\u5bf9\u5cd9
p1432
I14
sV\u4e03\u5251\u6218\u6b4c
p1433
I5929
sV\u76f8\u4f1a\u9ed1\u7075\u6bbf
p1434
I8
sV\u5730\u72f1\u706b\u6d77 (To Hell And Back)
p1435
I49
sV\u4e03\u5251\u4e0b\u5c71
p1436
I150
sV\u4e16\u4e0a\u7f8e\u597d\u4e8b
p1437
I13
sV\u5929\u706b\u73b0\u4e16/\u5f00\u5c71\u9759\u97f3 (Fire From Heave/Mount Heaven Serenade)
p1438
I10
ssS'Apocalypse: Staline (Musique Originale)'
p1439
(dp1440
VUkraine
p1441
I8
sVNicolas
p1442
I7
sVGoulag
p1443
I7
sVPerscution
p1444
I2
sVL'homme rouge
p1445
I58
sVAlliance avec le diable
p1446
I13
sVExcution
p1447
I7
sVNadejda
p1448
I6
sVLe mystre du Kremlin
p1449
I4
sVKoba
p1450
I4
sVL'attaque
p1451
I17
sVPrison
p1452
I7
sVLe matre du monde
p1453
I5
sVL'homme d'acier
p1454
I6
ssV\u79d1\u635c\u7814\u306e\u5973 \u30aa\u30ea\u30b8\u30ca\u30eb\u30b5\u30a6\u30f3\u30c9\u30c8\u30e9\u30c3\u30af Pa...
p1455
(dp1456
V\u60e8\u6bba
p1457
I2
sV\u8ffd\u61b6
p1458
I0
sV\u4e88\u5146~\u30e1\u30a4\u30f3\u30bf\u30a4\u30c8\u30eb
p1459
I1
sV\u6df1\u6df5~\u6226\u6144
p1460
I0
sV\u6025\u884c\u305b\u3088
p1461
I1
sV\u5211\u4e8b\u3068\u3044\u3046\u751f\u304d\u65b9
p1462
I0
sV\u6fc0\u95d8
p1463
I0
sV\u9065\u304b\u306a\u60f3\u3044
p1464
I1
sV\u3053\u3046\u306f\u8003\u3048\u3089\u308c\u306a\u3044?
p1465
I2
sVSRI\u8eca\u3001\u75be\u8d70
p1466
I0
sV\u671d\u306e\u30de\u30ea\u30b3
p1467
I1
sV\u660e\u304b\u3055\u308c\u305f\u904e\u53bb
p1468
I0
sV\u79d1\u635c\u7814\u306e\u30c6\u30fc\u30de Season15
p1469
I1
sV\u79d1\u635c\u7814\u306e\u30c6\u30fc\u30de Season14
p1470
I2
sV\u304a\u8336\u3067\u3082\u6df9\u308c\u307e\u3057\u3087\u3046\u304b
p1471
I0
sV\u6b7b\u4f53\u767a\u898b5\u79d2\u524d
p1472
I3
sV\u79d1\u635c\u7814\u306e\u30c6\u30fc\u30de Season13
p1473
I1
sV\u79d1\u635c\u7814\u306e\u30c6\u30fc\u30de Season12
p1474
I1
sV\u596a\u9084
p1475
I0
sV\u79d1\u635c\u7814\u306e\u30c6\u30fc\u30de Season11
p1476
I0
sV\u5211\u4e8b\u90e8\u9577\u30fb\u85e4\u5009\u751a\u4e00\u306e\u30c6\u30fc\u30de
p1477
I0
sV\u4e8b\u4ef6\u306f\u307e\u3060\u7d42\u308f\u3063\u3066\u3044\u306a\u3044
p1478
I0
sV\u8a3c\u62e0\u304c\u8a9e\u308b\u771f\u76f8
p1479
I0
sV\u72af\u4eba\u304b\u3089\u306e\u30e1\u30c3\u30bb\u30fc\u30b8
p1480
I1
sV\u4e8b\u4ef6\u306e\u6b8b\u308a\u9999
p1481
I0
sV\u4e00\u4f53\u306a\u305c?
p1482
I0
sV\u63a8\u7406\u306e\u68ee
p1483
I1
sV\u7f6a\u306e\u544a\u767d
p1484
I0
sV\u6b7b\u795e\u30fb\u843d\u5408\u4f50\u5983\u5b50\u306e\u30c6\u30fc\u30de
p1485
I1
sV\u73fe\u5834\u691c\u8a3c
p1486
I0
sV\u571f\u9580\u306e\u635c\u67fb
p1487
I0
sV\u4e00\u6bb5\u843d
p1488
I0
sV\u9451\u5b9a\u7d50\u679c\u767a\u8868
p1489
I1
sV\u5b9f\u9a13\u3057\u3066\u307f\u307e\u3057\u3087\u3046
p1490
I0
sV\u7ba1\u7406\u5b98\u30fb\u829d\u7f8e\u7d00\u6c5f\u306e\u30c6\u30fc\u30de
p1491
I1
sV\u65e9\u6708\u5148\u751f\u306e\u5dee\u3057\u5165\u308c
p1492
I0
sV\u8822\u304f\u60aa\u610f
p1493
I1
ssS'Fate/Stay night A.OST'
p1494
(dp1495
V\u53d7\u3051\u7d99\u304c\u308c\u3057\u523b\u5370
p1496
I52
sV\u9c9c\u8840\u306e\u9a91\u5175
p1497
I39
sV\u7ea6\u675f\u3055\u308c\u305f\u80dc\u5229\u306e\u5263-Kenji Kawai ver.-
p1498
I246
sV\u8f89\u3051\u5c11\u5e74\u5c11\u5973
p1499
I125
sV\u5951\u7ea6
p1500
I90
sV\u30a8\u30df\u30e4-Kenji Kawai ver.-
p1501
I654
sV\u6c38\u8fdc\u306e\u548e
p1502
I32
sV\u5f02\u754c\u306e\u6e0a
p1503
I21
sV\u673d\u3061\u305f\u8840\u7edf
p1504
I44
sV\u82f1\u970a\u9547\u9b42
p1505
I45
sV\u5b64\u72ec\u306a\u5de1\u793c
p1506
I7970
sV\u51f6\u5146
p1507
I29
sV\u9a91\u58eb\u738b\u306e\u5938\u308a
p1508
I12354
sV\u6108\u3048\u306c\u4f24\u8ff9
p1509
I39
sV\u9b54\u672f\u5e08
p1510
I63
sVdisillusion(TV\u30b5\u30a4\u30ba)
p1511
I510
sV\u91cc\u5207\u308a\u306e\u9b54\u5973
p1512
I46
sV\u6697\u8822\u304f
p1513
I16
sV\u6d17\u793c
p1514
I62
sV\u61a7\u308c\u306e\u4f18\u7b49\u751f
p1515
I55
sV\u51ac\u306e\u5996\u7cbe
p1516
I124
sV\u8fd0\u547d\u306e\u591c
p1517
I4696
sV\u5723\u676f
p1518
I100
sV\u5929\u5730\u70ae\u54ee
p1519
I138
sV\u7eca
p1520
I550
sV\u592a\u53e4\u306e\u4f1d\u627f
p1521
I89
sV\u5bb6\u653f\u592b\u306f\u6b63\u4e49\u306e\u5473\u65b9
p1522
I78
sV\u82f1\u96c4\u738b
p1523
I734
sV\u6f06\u9ed2\u306e\u5341\u5b57\u67b6
p1524
I30
sV\u30a2\u30a4\u30f3\u30c4\u30d9\u30eb\u30f3\u306e\u68ee
p1525
I27
sV\u4e3d\u3057\u304d\u82b1\u3005
p1526
I81
sV\u51ac\u6728\u8fdc\u666f
p1527
I362
sV\u7fa4\u96c4\u75be\u8d70
p1528
I642
sV\u3042\u306a\u305f\u304c\u3044\u305f\u68ee(TV\u30b5\u30a4\u30ba)
p1529
I463
sV\u85e4\u306d\u3048\u306e\u30c6\u30fc\u30de
p1530
I33
sV\u85e4\u306d\u3048\u306e\u30c6\u30fc\u30de-triple time ver.-
p1531
I18
sV\u4eca\u306f\u305d\u306e\u5263\u3092\u7f6e\u3044\u3066
p1532
I1955
sV\u56e0\u679c\u6d41\u8ee2
p1533
I34
sV\u4e91\u306f\u67d3\u307e\u308a\u3086\u304f
p1534
I91
sVLa Sola
p1535
I710
ssVTV\u30a2\u30cb\u30e1\u300eSERVAMP-\u30b5\u30fc\u30f4\u30a1\u30f3\u30d7-\u300f\u30aa\u30ea\u30b8\u30ca...
p1536
(dp1537
V\u30d9\u30eb\u30ad\u30a2
p1538
I4
sV\u5168\u3066\u304c\u7121\u4fa1\u5024\u306e\u304f\u3060\u3089\u306a\u3044\u821e\u53f0
p1539
I1
sV\u4e16\u754c\u5d29\u58ca\u3078\u306e\u30ab\u30a6\u30f3\u30c8\u30c0\u30a6\u30f3
p1540
I3
sV\u6d99\u3057\u308d
p1541
I6
sV\u4e2d\u7acb\u6a5f\u95a2C3
p1542
I2
sV\u6614\u3005\u3001\u3042\u308b\u3068\u3053\u308d\u306b7\u4eba\u306e\u5438\u8840\u9b3c\u306e\u5144\u5f1f\u304c\u304a\u308a\u307e\u3057\u305f\u2026\u3002
p1543
I6
sV\u4ffa\u3082\u305d\u306e\u300e\u8ab0\u304b\u300f\u306b\u306a\u308a\u305f\u304b\u3063\u305f
p1544
I1
sVsunlight avenue (ED\u4e3b\u984c\u6b4c TV-SIZE)
p1545
I8
sV\u5fc3\u512a\u3057\u3044\u5f15\u304d\u3053\u3082\u308a\u5438\u8840\u9b3c
p1546
I1
sV\u30af\u30ed
p1547
I8
sV\u771f\u663c
p1548
I6
sV\u4e3b\u5f93\u5951\u7d04
p1549
I2
sV\u5411\u304d\u5408\u3046\u899a\u609f
p1550
I3
sV\u305d\u308c\u306f\u304d\u3063\u3068\u300e\u4ffa\u3068\u304a\u524d\u300f\u3060\u308d\uff01
p1551
I2
sV\u4e00\u808c\u8131\u304e\u307e\u3057\u3087\u3046
p1552
I1
sV\u3055\u3042\u3001\u305d\u306e\u5148\u306e\u5e0c\u671b\u3078\u3068\u3002(\u7b2c10\u8a71\u300c\u30ed\u30a6\u30ec\u30b9\u300d\u633f\u5165\u6b4cSHORT-SIZE)
p1553
I11
sV\u5fa1\u56fd&\u30b8\u30a7\u30b8\u30a7
p1554
I2
sVDeal with(OP\u4e3b\u984c\u6b4cTV-SIZE)
p1555
I6
sV\u5e78\u305b\u306a\u672a\u6765\u306e\u8a71
p1556
I1
sV\u693f
p1557
I32
sV\u846c\u5100\u958b\u5e55
p1558
I3
sV\u5148\u751f
p1559
I2
sV\u8ab0\u304c\u50d5\u3092\u88cf\u5207\u3063\u3066\u3082\u50d5\u306f\u8ab0\u3082\u88cf\u5207\u3089\u306a\u3044
p1560
I2
sV\u30b7\u30f3\u30d7\u30eb \u30a4\u30ba \u30d9\u30b9\u30c8\uff01
p1561
I2
sV\u9762\u767d\u304f\u306a\u3044
p1562
I5
sV\u4ffa\u306b\u7652\u3055\u308c\u308d
p1563
I2
sV\u672a\u5b8c\u6210DESTINATION(\u7b2c11\u8a71\u300c\u8a31\u3055\u306a\u3044\u3067\u304f\u308c\u3066\u300d\u633f\u5165\u6b4cSHORT-SIZE)
p1564
I4
sV\u5fa1\u5712&\u30b9\u30ce\u30a6\u30ea\u30ea\u30a4
p1565
I4
sV\u9244&\u30d2\u30e5\u30fc
p1566
I1
sV\u685c\u54c9
p1567
I9
sV\u3042\u30fc\u305d\u3073\u30fc\u307e\u3057\u3087\u30fc\uff1f
p1568
I2
sV\u30b5\u30fc\u30f4\u30a1\u30f3\u30d7\u306f\u7f6a\u3001\u30a4\u30f4\u306f\u7406\u6027\u3060\u3002
p1569
I1
sVSERVAMP-\u30b5\u30fc\u30f4\u30a1\u30f3\u30d7-
p1570
I11
sV\u6226\u4e89\u3057\u3088\u3063\u304b
p1571
I3
sV\u9ed2\u3044\u7345\u5b50
p1572
I4
sV\u30b7\u30f3\u30d7\u30eb\u306b\u8003\u3048\u3066\u4ffa\u3060\u308d\uff01
p1573
I2
sV\u4eba\u306e\u7f6a
p1574
I2
sV\u30ea\u30d2\u30c8&\u30ed\u30a6\u30ec\u30b9
p1575
I5
sV\u305d\u306e\u7406\u60f3\u306b\u624b\u3092\u4f38\u3070\u305b\uff01
p1576
I3
sV\u30d2\u30ac\u30f3
p1577
I3
ssV\u707c\u70ed\u590f \u7edd\u7231~1989~ Version2
p1578
(dp1579
V\u9082\u9005
p1580
I5
sV\u707c\u71b1\u590f
p1581
I5
sVSWEET SLAUGHTER
p1582
I9
sV\u3069\u3046\u3059\u308c\u3070\u3044\u3044
p1583
I119
sV\u8840
p1584
I49
sV\u592a\u967d\u306e\u7834\u7247
p1585
I7
sV\u771f\u7d05\u306e\u50b7\u8de1
p1586
I117
sV\u6df1\u9ed2\u306e\u8a95\u751f
p1587
I7
sV\u201cD\u201d
p1588
I5
sVZETSUAI \u30e1\u30ac\u30fb\u30df\u30c3\u30af\u30b9(Short Style) - remix
p1589
I23
sVBAD BLOOD
p1590
I14
sV\u4e88\u5146
p1591
I26
sVJesus christ love For you
p1592
I11
ssV\u673a\u52a8\u8b66\u5bdf\u30d1\u30c8\u30ec\u30a4\u30d0\u30fc2 the Movie/\u30aa\u30ea\u30b8\u30ca...
p1593
(dp1594
V\u30ba\u30fc\u30e0\u30fb\u30c0\u30a6\u30f3
p1595
I2
sV\u30a8\u30a4\u30b8\u30a2
p1596
I7
sV\u30a2\u30c3\u30c8\u30fb\u30d1\u30fc\u30c6\u30a3\u30f3\u30b0
p1597
I3
sV\u30c6\u30fc\u30de\u30fb\u30aa\u30d6\u30fb\u30d1\u30c8\u30ec\u30a4\u30d0\u30fc2
p1598
I22
sV\u30a6\u30a3\u30ba\u30fb\u30e9\u30f4
p1599
I9
sV\u30a2\u30a6\u30c8\u30d6\u30ec\u30a4\u30af
p1600
I4
sV\u30cf\u30eb\u30b7\u30cd\u30a4\u30b7\u30e7\u30f3
p1601
I13
sV\u201cIXTL\u201d
p1602
I6
sV\u30a2\u30a6\u30c8\u30bb\u30c3\u30c8
p1603
I3
sVWyvern
p1604
I8
sV\u30a2\u30f3\u30ca\u30c1\u30e5\u30e9\u30eb\u30fb\u30b7\u30c6\u30a31
p1605
I3
sV\u30a2\u30f3\u30ca\u30c1\u30e5\u30e9\u30eb\u30fb\u30b7\u30c6\u30a32
p1606
I3
sV\u30dd\u30fc\u30c6\u30f3\u30c8
p1607
I4
ssV\u4fe1\u9577\u306e\u91ce\u671b Online 10\u5468\u5e74\u8a18\u5ff5\u30b5\u30a6\u30f3\u30c9\u30c8\u30e9...
p1608
(dp1609
V\u5bfe\u6c7a
p1610
I3
sV\u8fce\u6483
p1611
I1
sV\u6df7\u4e71
p1612
I10
sV\u4ec1\u738b
p1613
I3
sV\u5fe0\u7fa9
p1614
I2
sV\u65b0\u661f
p1615
I8
sV\u795e\u7363\u6226
p1616
I6
sV\u6253\u7834
p1617
I6
sV\u9006\u5883
p1618
I16
sV\u5d50\u306e\u524d
p1619
I2
sV\u51fa\u9663
p1620
I4
sV\u9032\u6483
p1621
I2
sV\u5929\u5b6b\u964d\u81e8
p1622
I2
sV\u6226\u83ef
p1623
I4
sV\u96f2\u5dba
p1624
I5
sV\u5e03\u6b66
p1625
I2
sV\u6012\u6d9b
p1626
I3
sV\u9055\u548c
p1627
I7
sV\u679c\u6562
p1628
I3
sV\u72c2\u4e71
p1629
I4
sV\u96e3\u95a2
p1630
I11
sV\u754f\u6016
p1631
I2
sV\u90aa\u60aa \u7834\u5929Ver.
p1632
I3
sV\u96c5\u697d\u30ed\u30c3\u30af
p1633
I6
sV\u795e\u6226
p1634
I6
sV\u970a\u6c17
p1635
I4
sV\u9a12\u4e71
p1636
I5
sV\u5b89\u571f
p1637
I11
sV\u6804\u5149
p1638
I3
sV\u6211\u304c\u5bb6
p1639
I6
sV\u5171\u95d8
p1640
I3
sV\u6c7a\u6226
p1641
I2
sV\u91cc
p1642
I9
sV\u7729\u8ff7
p1643
I11
sV\u5f37\u8c6a
p1644
I10
sV\u96e3\u653b
p1645
I2
sV\u7570\u6b21\u5143
p1646
I1
sV\u8c6a\u96e8
p1647
I7
sV\u597d\u6575\u624b
p1648
I6
sV\u885d\u6483
p1649
I4
sV\u683c\u5f0f
p1650
I7
sV\u8ecd\u56fd
p1651
I6
sV\u57ce\u4e0b\u753a
p1652
I2
sV\u9244\u58c1
p1653
I9
sV\u7834\u58ca\u795e
p1654
I4
sV\u62ee\u6297
p1655
I2
sV\u795e\u306e\u793e
p1656
I5
sV\u6372\u571f\u91cd\u6765
p1657
I4
sV\u7834\u7af9
p1658
I2
sV\u9b3c\u795e
p1659
I2
sV\u5929\u4e0b\u7d71\u4e00
p1660
I11
sV\u96c6\u843d
p1661
I3
sV\u596e\u6226
p1662
I2
sV\u9006\u8ee2
p1663
I3
sV\u52c7\u6562
p1664
I3
sV\u5bae
p1665
I11
sV\u547d\u904b
p1666
I4
ssVTHE NEXT GENERATION \u30d1\u30c8\u30ec\u30a4\u30d0\u30fc \u30aa\u30ea\u30b8\u30ca...
p1667
(dp1668
V\u507d\u308a\u306e\u53cb\u60c5
p1669
I1
sVH i g h w a y - s e c t i o n 2
p1670
I10
sV\u4eca\u65e5\u3082\u4eca\u65e5\u3068\u30662
p1671
I1
sV\u7acb\u55b0\u306e\u671d
p1672
I1
sV\u843d\u65e5
p1673
I1
sV\u7b4b\u8089\u6574\u5099\u54e1
p1674
I2
sV\u4eca\u65e5\u3082\u4eca\u65e5\u3068\u3066
p1675
I1
sV\u6b63\u3057\u3044\u6574\u5099\u54e1\u306e\u6b4c
p1676
I6
sV\u767a\u7832\u547d\u4ee4
p1677
I2
sV\u9670\u8b00\u306e\u30c6\u30fc\u30de
p1678
I1
sV\u635c\u7d22\u305b\u3088
p1679
I0
sV\u3055\u308c\u3069\u30b2\u30fc\u30e0
p1680
I0
sV\u7d14\u55ab\u8336\u300c\u518d\u4f1a\u300d
p1681
I1
sV\u6765\u308b\u3082\u3093\u304c\u6765\u305f
p1682
I1
sV\u5948\u843d\u306e\u5e73\u5747\u53f0
p1683
I0
sVAmbitious!
p1684
I23
sV\u5730\u7344\u306e\u4e8c\u76f4\u5236
p1685
I1
sV\u5f37\u3044\u30aa\u30e4\u30b8
p1686
I0
sV\u4fee\u884c\u304c\u8db3\u308a\u3093\u308f
p1687
I1
sV\u51fa\u6483\u6e96\u5099601
p1688
I4
sV\u5168\u529b\u51fa\u6483603
p1689
I7
sV98\u5f0f\u8d77\u52d5\u305b\u3088
p1690
I3
sV\u8349\u5208\u308a\u306e\u30de\u30fc\u30c1
p1691
I2
sV\u30d0\u30c3\u30af\u30cf\u30f3\u30c9\u30d6\u30ed\u30a6
p1692
I0
sV\u56de\u60f3\u306e\u7b2c\u4e8c\u5c0f\u968a
p1693
I1
sV\u7dcf\u54e1\u50be\u6ce8\u305b\u3088
p1694
I0
sV\u30d7\u30ed\u30ed\u30fc\u30b0
p1695
I6
sV\u6c7a\u95d8\u306e\u671d
p1696
I2
ssS'SOUND OF 009 RE:CYBORG'
p1697
(dp1698
VRE:CYBORG
p1699
I14
sVSUSPECT
p1700
I1
sV\u5e30\u9084
p1701
I0
sVWHO HEARS VOICE
p1702
I0
sVFIRE A GUN LOOSE OFF A SHELL
p1703
I3
sV\u30b8\u30a7\u30d9\u30b8\u30fb\u30cf\u30f3
p1704
I1
sV\u53cb\u3088
p1705
I0
sVMODE UP
p1706
I1
sVCOUNT DOWN-9
p1707
I2
sVI HAVE GOD IN
p1708
I0
sVWORLD END GARDEN
p1709
I0
sVSEARCH
p1710
I0
sV\u708e\u5439\u7537
p1711
I3
sVFRIEND OR FOE
p1712
I2
sVCAPITAL
p1713
I0
sVMODE DOWN
p1714
I0
sV\u4e16\u754c\u306e\u57fa\u8ef8
p1715
I1
sVSACRIFICE
p1716
I1
sVAWAKING
p1717
I2
sVFOR F...
p1718
I0
sV\u58f0\u3042\u308a\u304d
p1719
I3
sV\u518d\u4f1a
p1720
I0
ssV\u58a8\u653b
p1721
(dp1722
Vwar on a board game
p1723
I3
sVdefeated
p1724
I9
sVfirst encounter
p1725
I10
sVdefense
p1726
I17
sVa battle of wits
p1727
I132
sVrecognition
p1728
I14
sVstory
p1729
I10
sVarrows in the night
p1730
I2
sVsecret intrusion
p1731
I1
sVthe spy
p1732
I4
sVuniversal love
p1733
I63
sVdeath of the spy
p1734
I5
sVpainting of the crisis
p1735
I1
sVthe zhao\u2019s force
p1736
I2
sVthe contest
p1737
I2
sVreturn
p1738
I10
sVthe end
p1739
I1
sVthe command
p1740
I4
sVvoice of the ruin
p1741
I1
sVsea of fire
p1742
I2
sVsurrender
p1743
I11
sVretreat
p1744
I1
sVmenace
p1745
I1
sVfurious
p1746
I7
sVmourn of hell
p1747
I1
sVretaliation
p1748
I2
sVambush
p1749
I9
sVthe last night
p1750
I1
sVlonesome
p1751
I5
sVauxiliary troop
p1752
I2
ssV\u30b3\u30ec\u30af\u30bf\u30fc\u30fb\u30e6\u30a4 \u2015 \u30aa\u30ea\u30b8\u30ca\u30eb\u30fb\u30b5\u30a6\u30f3\u30c9...
p1753
(dp1754
V\u5f02\u7a7a\u95f4
p1755
I0
sV\u306f\u3042\u3068 \u3073\u3044\u3068\ue4b2
p1756
I3
sV\u7535\u8133\u4e16\u754c(\u30d0\u30fc\u30c1\u30e3\u30eb\u30b9\u30da\u30fc\u30b9)
p1757
I0
sV\u8feb\u308a\u6765\u308b\u9b54\u624b
p1758
I0
sV\u51f8\u51f9\u30b3\u30f3\u30d3
p1759
I0
sV\u30df\u30e9\u30af\u30bf\u30ca\u30e9\u30ba\u30bf\u30a4
p1760
I0
sV\u304a\u8c03\u5b50IR
p1761
I0
sVsunshine girl
p1762
I14
sV\u30b3\u30e0\u30cd\u30c3\u30c8\u306e\u4e16\u754c\u3078
p1763
I1
sV\u4e88\u544aBGM
p1764
I9
sV\u30d4\u30f3\u30c1\u3067\u3042\u308a\u307e\u3059\u308b~
p1765
I0
sV\u306f\u308a\u304d\u3063\u3066\u884c\u3053\u3046!
p1766
I0
sV\u30a2\u30a4\u30ad\u30e3\u30c3\u30c1
p1767
I11
sV\u79c1\u7acb\u30b9\u30af\u30ed\u30fc\u30eb\u5b66\u56ed1
p1768
I0
sV\u79c1\u7acb\u30b9\u30af\u30ed\u30fc\u30eb\u5b66\u56ed2
p1769
I0
sV\u30e6\u30a4 \u3078\u3093\u3057~\u3093!
p1770
I0
sV\u5927\u5207\u306a\u53cb\u8fbe
p1771
I0
sV\u30b3\u30e0\u30cd\u30c3\u30c8\u306e\u5996\u7cbe(\u30d5\u30a7\u30a2\u30ea\u30fc)
p1772
I0
sV\u304a\u3044\u304a\u3044
p1773
I1
sV\u30b0\u30ed\u30c3\u30b5\u30fc\u306e\u731b\u653b
p1774
I2
sV\u602a\u3057\u3044\u7f60
p1775
I1
sVthe evening star
p1776
I0
sV\u3057\u3042\u308f\u305b\u306e\u98ce\u666f
p1777
I0
sV\u660e\u65e5\u3078\u306e\u5e0c\u671b
p1778
I2
sVSubtitle
p1779
I9
sV\u30b3\u30ec\u30af\u30bf\u30fc\u30a4\u30cb\u30b7\u30e3\u30e9\u30a4\u30ba!
p1780
I0
sV\u30b0\u30ed\u30c3\u30b5\u30fc\u306e\u91ce\u671b
p1781
I0
sV\u60b2\u3057\u3055\u3068\u3084\u3055\u3057\u3055
p1782
I0
sV\u8d1f\u3051\u306a\u3044\u6c17\u6301\u3061
p1783
I0
sV\u5f3a\u5236\u7ec8\u4e86,\u51b3\u3081\u308b\u308f\u3088!
p1784
I2
sV\u30e6\u30a4\u306e\u30c6\u30fc\u30de
p1785
I1
sV\u30cf\u30c1\u30e3\u30e1\u30c1\u30e3\u8ffd\u8d70\u5267
p1786
I0
sV\u30cf\u30c3\u30d4\u30fc\u30a8\u30f3\u30c9
p1787
I0
sV\u30af\u30b8\u30e9\u306e\u6b4c
p1788
I3
ssVKenji Kawai Original Masters vol.1 ~NHK\u30b9...
p1789
(dp1790
V\u30aa\u30a6\u30e0\u771f\u7406\u6559 M14
p1791
I0
sV\u30aa\u30a6\u30e0\u771f\u7406\u6559 M15-1
p1792
I0
sV\u6c38\u7530\u753a\u30fb\u6a29\u529b\u306e\u8208\u4ea1 M2b
p1793
I1
sV\u5c3c\u5d0e\u6bba\u4eba\u6b7b\u4f53\u907a\u68c4\u4e8b\u4ef6 3M9B
p1794
I0
sV\u6c38\u7530\u753a\u30fb\u6a29\u529b\u306e\u8208\u4ea1 M2a
p1795
I1
sV\u30aa\u30a6\u30e0\u771f\u7406\u6559 M6A
p1796
I0
sV\u5c3c\u5d0e\u6bba\u4eba\u6b7b\u4f53\u907a\u68c4\u4e8b\u4ef6 3M3C
p1797
I8
sV\u5c3c\u5d0e\u6bba\u4eba\u6b7b\u4f53\u907a\u68c4\u4e8b\u4ef6 3M3B
p1798
I1
sV\u5c3c\u5d0e\u6bba\u4eba\u6b7b\u4f53\u907a\u68c4\u4e8b\u4ef6 3M1B
p1799
I0
sV\u6cb8\u9a30\u90fd\u5e022 Jo 1 (JOHANNESBURG1)
p1800
I1
sV\u6c38\u7530\u753a\u30fb\u6a29\u529b\u306e\u8208\u4ea1 M4a
p1801
I0
sV\u6c38\u7530\u753a\u30fb\u6a29\u529b\u306e\u8208\u4ea1 M4b
p1802
I1
sV\u30b7\u30ea\u30fc\u30ba\u9077\u5bae \u88cf\u30c6\u30fc\u30de 1
p1803
I0
sV\u6cb8\u9a30\u90fd\u5e02 BGM 2 (\u6cb8\u9a30\u90fd\u5e02BGM2)
p1804
I1
sV\u30b0\u30ea\u30b3\u30fb\u68ee\u6c38\u4e8b\u4ef6 M2C Syn Melo
p1805
I0
sV\u30aa\u30a6\u30e0\u771f\u7406\u6559 M5B
p1806
I0
sV\u707c\u71b1\u30a2\u30b8\u30a2 ED (\u707c\u71b1\u30a2\u30b8\u30a2 \u30a8\u30f3\u30c7\u30a3\u30f3\u30b0\u30c6\u30fc\u30de)
p1807
I3
sV\u30b0\u30ea\u30b3\u30fb\u68ee\u6c38\u4e8b\u4ef6 M2A (\u30a8\u30ec\u30b8\u30fc~\u7537\u305f\u3061\u306e\u633d\u6b4c~)
p1808
I0
sV\u707c\u71b1\u30a2\u30b8\u30a2 OP (\u707c\u71b1\u30a2\u30b8\u30a2 \u30aa\u30fc\u30d7\u30cb\u30f3\u30b0\u30c6\u30fc\u30de)
p1809
I4
sV\u5c3c\u5d0e\u6bba\u4eba\u6b7b\u4f53\u907a\u68c4\u4e8b\u4ef6 3M5C
p1810
I0
sV\u5c3c\u5d0e\u6bba\u4eba\u6b7b\u4f53\u907a\u68c4\u4e8b\u4ef6 3M11B
p1811
I2
sV\u30b7\u30ea\u30fc\u30ba\u9077\u5bae \u88cf\u30c6\u30fc\u30de 2
p1812
I1
sV\u30aa\u30a6\u30e0\u771f\u7406\u6559 M5A
p1813
I0
sV\u30aa\u30a6\u30e0\u771f\u7406\u6559 M9A
p1814
I0
sV\u30aa\u30a6\u30e0\u771f\u7406\u6559 M9B
p1815
I0
sV\u30b0\u30ea\u30b3\u30fb\u68ee\u6c38\u4e8b\u4ef6 M1A (\u672a\u89e3\u6c7a\u4e8b\u4ef6\u30e1\u30a4\u30f3\u30c6\u30fc\u30de\u300c\u30e9\u30d3\u30ea\u30f3\u30b9\u300d)
p1816
I8
sV\u30aa\u30a6\u30e0\u771f\u7406\u6559 M12C
p1817
I0
sV\u30b0\u30ea\u30b3\u30fb\u68ee\u6c38\u4e8b\u4ef6 M2D (\u30b5\u30d5\u30a1\u30ea\u30f3\u30b0~\u82e6\u60a9)
p1818
I1
sV\u30aa\u30a6\u30e0\u771f\u7406\u6559 M12D
p1819
I0
sV\u5c3c\u5d0e\u6bba\u4eba\u6b7b\u4f53\u907a\u68c4\u4e8b\u4ef6 3M4
p1820
I0
sV\u5c3c\u5d0e\u6bba\u4eba\u6b7b\u4f53\u907a\u68c4\u4e8b\u4ef6 3M1
p1821
I2
sV\u30b0\u30ea\u30b3\u30fb\u68ee\u6c38\u4e8b\u4ef6 M1C (\u30c1\u30a7\u30a4\u30b9~\u8ffd\u8de1~)
p1822
I2
sV\u30b0\u30ea\u30b3\u30fb\u68ee\u6c38\u4e8b\u4ef6 M1B (\u30b3\u30fc\u30eb\u30c9\u30fb\u30b1\u30fc\u30b9~\u672a\u89e3\u6c7a\u4e8b\u4ef6~)
p1823
I1
sV\u30b3\u30f3\u30d4\u30e5\u30fc\u30bf\u30fc\u9769\u547d/\u30ed\u30dc\u30c3\u30c8\u9769\u547d ED
p1824
I0
sV\u30b0\u30ea\u30b3\u30fb\u68ee\u6c38\u4e8b\u4ef6 M3A
p1825
I19
sV\u5c3c\u5d0e\u6bba\u4eba\u6b7b\u4f53\u907a\u68c4\u4e8b\u4ef6 3M8
p1826
I0
sV\u30aa\u30a6\u30e0\u771f\u7406\u6559 M4B
p1827
I0
sV\u30aa\u30a6\u30e0\u771f\u7406\u6559 M4A
p1828
I1
sV\u5c3c\u5d0e\u6bba\u4eba\u6b7b\u4f53\u907a\u68c4\u4e8b\u4ef6 3M6C
p1829
I2
sV\u6cb8\u9a30\u90fd\u5e02 BGM 4 (\u6cb8\u9a30\u90fd\u5e02BGM4)
p1830
I2
sV\u30aa\u30a6\u30e0\u771f\u7406\u6559 M10
p1831
I0
sV\u30aa\u30a6\u30e0\u771f\u7406\u6559 M11
p1832
I0
sV\u30aa\u30a6\u30e0\u771f\u7406\u6559 M6B
p1833
I0
sV\u30b7\u30ea\u30fc\u30ba\u9077\u5bae 2 Take 2
p1834
I0
sV\u30aa\u30a6\u30e0\u771f\u7406\u6559 M16
p1835
I0
sV\u30b7\u30ea\u30fc\u30ba\u9077\u5bae 2 Take 1
p1836
I0
sV\u6cb8\u9a30\u90fd\u5e02 BGM 3 (\u6cb8\u9a30\u90fd\u5e02BGM3)
p1837
I4
sV\u30b7\u30ea\u30fc\u30ba\u9077\u5bae 3
p1838
I0
sV\u30b7\u30ea\u30fc\u30ba\u9077\u5bae 1
p1839
I1
sV\u6cb8\u9a30\u90fd\u5e02 BGM 1 (\u6cb8\u9a30\u90fd\u5e02BGM1)
p1840
I20
sV\u6c38\u7530\u753a\u30fb\u6a29\u529b\u306e\u8208\u4ea1 M5
p1841
I1
sV\u5c3c\u5d0e\u6bba\u4eba\u6b7b\u4f53\u907a\u68c4\u4e8b\u4ef6 3M7B
p1842
I0
sV\u6c38\u7530\u753a\u30fb\u6a29\u529b\u306e\u8208\u4ea1 M3
p1843
I1
sV\u5c3c\u5d0e\u6bba\u4eba\u6b7b\u4f53\u907a\u68c4\u4e8b\u4ef6 3M2C
p1844
I1
sV\u6c38\u7530\u753a\u30fb\u6a29\u529b\u306e\u8208\u4ea1 M1
p1845
I1
sV\u5c3c\u5d0e\u6bba\u4eba\u6b7b\u4f53\u907a\u68c4\u4e8b\u4ef6 3M2A
p1846
I0
sV\u30b0\u30ea\u30b3\u30fb\u68ee\u6c38\u4e8b\u4ef6 M2B
p1847
I0
sV\u6cb8\u9a30\u90fd\u5e02 M OP (\u6cb8\u9a30\u90fd\u5e02Opening)
p1848
I11
sV\u6cb8\u9a30\u90fd\u5e022 Latin 6 (Latin)
p1849
I0
sV\u6cb8\u9a30\u90fd\u5e02 ED (\u6cb8\u9a30\u90fd\u5e02ENDING)
p1850
I1
sV\u30aa\u30a6\u30e0\u771f\u7406\u6559 M8
p1851
I0
sV\u707c\u71b1\u30a2\u30b8\u30a2 BGM1 (\u707c\u71b1\u30a2\u30b8\u30a2BGM1)
p1852
I3
sV\u30aa\u30a6\u30e0\u771f\u7406\u6559 M7
p1853
I0
sV\u30aa\u30a6\u30e0\u771f\u7406\u6559 M13B
p1854
I0
sV\u707c\u71b1\u30a2\u30b8\u30a2 BGM2 (\u707c\u71b1\u30a2\u30b8\u30a2BGM2)
p1855
I1
sV\u5c3c\u5d0e\u6bba\u4eba\u6b7b\u4f53\u907a\u68c4\u4e8b\u4ef6 3M10B
p1856
I1
sV\u6cb8\u9a30\u90fd\u5e022 Tokyo (TOKYO)
p1857
I1
ssV\u30b9\u30bf\u30fc\u30b7\u30c3\u30d7\u30aa\u30da\u30ec\u30fc\u30bf\u30fc\u30ba \u30aa\u30ea\u30b8\u30ca\u30eb\u30b5\u30a6...
p1858
(dp1859
V\u30a4\u30f3\u30b6\u30b9\u30da\u30fc\u30b9
p1860
I0
sV\u4e0d\u4fe1
p1861
I0
sV\u7d76\u5bfe\u306e\u4e0d\u5229
p1862
I0
sV\u30ad\u30e3\u30f3\u30d1\u30b9\u30e9\u30a4\u30d5
p1863
I1
sV\u7b56\u8c0b
p1864
I0
sV\u654c\u8230\u6483\u7834
p1865
I2
sV\u30ab\u30a6\u30f3\u30c8\u30c0\u30a6\u30f3
p1866
I0
sVDEFCON 1
p1867
I0
sV\u5168\u9451\u767a\u8fdb
p1868
I0
sV\u7d76\u5bfe\u7d76\u547d
p1869
I1
sV\u4e00\u65f6\u306e\u5b89\u3089\u304e
p1870
I21
sV\u30ad\u30f3\u30b0\u30c0\u30e0
p1871
I0
sV\u5927\u3044\u306a\u308b\u529b\u306e\u5f71
p1872
I0
sV\u94f6\u6cb3\u30cd\u30c3\u30c8\u30ef\u30fc\u30af
p1873
I0
sV\u30ec\u30af\u30a4\u30a8\u30e0
p1874
I0
sV\u7b49\u8eab\u5927\u306e\u65e5\u5e38
p1875
I0
sV\u30a2\u30bf\u30c3\u30af
p1876
I0
sV\u6226\u3044\u306e\u305d\u306e\u5148\u306b
p1877
I0
sV\u5931\u308f\u308c\u305f\u3082\u306e
p1878
I0
sV\u30ab\u30a6\u30f3\u30bf\u30fc
p1879
I0
sV\u30d5\u30a1\u30a4\u30ca\u30eb\u30aa\u30da\u30ec\u30fc\u30b7\u30e7\u30f3
p1880
I0
sV\u5b64\u72ec
p1881
I2
sV\u654c\u88ad
p1882
I0
sV\u7acb\u3061\u306f\u3060\u304b\u308b\u3082\u306e
p1883
I0
sV\u7b56\u654c
p1884
I1
sVradiance(TV VERSION)
p1885
I1
sV\u5fdc\u3048\u308b\u3082\u306e\u306a\u304f
p1886
I0
sV\u30d6\u30ea\u30fc\u30d5\u30a3\u30f3\u30b0
p1887
I0
sV\u5168\u3066\u3092\u304b\u3051\u3066
p1888
I0
sV\u6050\u6016
p1889
I3
sV\u679c\u3066\u65e0\u304d\u6697
p1890
I0
sV\u91cd\u306a\u308b\u60f3\u3044
p1891
I1
sV\u4e0d\u5b89
p1892
I0
sVAESOP
p1893
I18
sV\u59cb\u307e\u308a\u3068\u2026\u7ec8\u308f\u308a\u3068\u2026
p1894
I3
sV\u62a4\u536b\u8230\u30a2\u30de\u30c6\u30e9\u30b9
p1895
I0
ssS"Patlabor Image Soundtrack Album Vol.2 'I..."
p1896
(dp1897
V\u6804\u5149\u306e\u7279\u8eca\u968a
p1898
I3
sV\u6681\u306e\u30de\u30fc\u30c1
p1899
I1
sV\u8feb\u308a\u304f\u308b\u8005
p1900
I1
sV\u3086\u3051\u3088!\u30a4\u30f3\u30b0\u30e9\u30e0
p1901
I1
sVINGRAM
p1902
I2
sVL\u306e\u60b2\u5287
p1903
I5
sV\u75be\u8d70
p1904
I1
sV\u304c\u3093\u3070\u308c\uff0c\u5f8c\u85e4\u968a\u9577
p1905
I1
sV\u3042\u3063\u8efd\u3044\u4eba\u3073\u3068
p1906
I1
sV\u4e8c\u8ab2\u306e\u4e00\u756a\u9577\u3044\u65e5
p1907
I2
sV\u51ac
p1908
I2
sV\u92fc\u306e\u77e2
p1909
I1
sV\u30ec\u30f4\u30a9\u30ea\u30e5\u30fc\u30b7\u30e7\u30f3
p1910
I7
sV\u4e88\u5146
p1911
I1
sV\u6804\u5149\u306e\u7279\u8eca\u968a\uff5e\u7279\u8eca\u968a\u306e\u3046\u305f
p1912
I1
sVN\u30fbO\u30fbA
p1913
I2
sV\u63a8\u7406
p1914
I1
sVBelieve yourself Again
p1915
I0
ssV\u653b\u6bbb\u673a\u52a8\u961f O.S.T
p1916
(dp1917
VM03 Puppetmaster
p1918
I11
sVM01 \u8b21I-Making of Cyborg
p1919
I684
sVBonus Track \u633f\u5165\u6b4c \u6bce\u5929\u89c1\u4e00\u89c1!
p1920
I115
sVM08 Floating Museum
p1921
I57
sVM06 Access
p1922
I227
sVM02 Ghosthack (\u672c\u7f16\u672a\u4f7f\u7528)
p1923
I14
sVM04 Virtual Crime
p1924
I20
sVM05 \u8b21II-Ghost City
p1925
I75
sVM09 Ghostdive
p1926
I11
sVM07 Nightstalker
p1927
I44
sVM10 \u8b21III-Reincarnation
p1928
I139
ssVMAKOTO \u30aa\u30ea\u30b8\u30ca\u30eb\u30b5\u30a6\u30f3\u30c9\u30c8\u30e9\u30c3\u30af
p1929
(dp1930
VMAKOTO
p1931
I2
sV\u63cf\u3044\u3066\u306f\u3044\u3051\u306a\u3044\u666f\u8272
p1932
I0
sV\u307e\u3088\u3044
p1933
I0
sV\u7a7a\u6c17\u306e\u306a\u304b\u306b
p1934
I1
sV\u304a\u613f\u3044!\u89c1\u3048\u306a\u3044\u3067!
p1935
I0
sV\u5c0f\u3055\u306a\u5fc3\u3092\u5c4a\u3051\u305f\u3044
p1936
I11
sV\u53eb\u3093\u3067\u3082...
p1937
I0
sV\u7231\u3059\u308b\u305f\u3081\u306b
p1938
I2
sV\u4fe1\u3058\u3066!\u6c42\u3081\u3066!\u7231\u3057\u3066!
p1939
I0
sV\u3053\u306e\u601d\u3044\u306f\u8c01\u3082\u77e5\u3089\u306a\u3044
p1940
I0
sV\u3072\u3068\u308a
p1941
I0
sV\u4f1d\u3048\u305f\u3044\u306e\u306b
p1942
I0
sV\u307e\u3055\u304b!
p1943
I0
sV\u5fc3\u3092\u611f\u3058\u308b
p1944
I1
sV\u623b\u308a\u305f\u3044\u306e\u306b
p1945
I1
sV\u4f55\u3092\u3082\u3068\u3081\u3066
p1946
I0
ssV\u4fe1\u9577\u306e\u91ce\u671b Online \uff5e\u899a\u9192\u306e\u7ae0\uff5e \u30b5\u30a6\u30f3\u30c9\u30c8...
p1947
(dp1948
V\u6fc0\u7a81
p1949
I28
sV\u5fc3\u8e8d
p1950
I3
sV\u4fb5\u653b
p1951
I13
sV\u8972\u6765
p1952
I5
sV\u82e6\u5883
p1953
I3
sV\u71be\u70c8
p1954
I6
sV\u83ef\u821e
p1955
I10
sV\u71b1\u8aa0
p1956
I19
sV\u9b51\u9b45
p1957
I3
sV\u9032\u8ecd
p1958
I10
sV\u904b\u6c17
p1959
I74
sV\u71e6\u4f73
p1960
I12
ssV\u3081\u3056\u3081\u306e\u65b9\u821f
p1961
(dp1962
V\u9752\u9cc7
p1963
I7
sV\u30a4\u30f3\u30bf\u30fc\u30df\u30c3\u30b7\u30e7\u30f3
p1964
I5
sV\u767e\u79bd
p1965
I41
sV\u72d7\u5974
p1966
I3
ssV\u201c\u771f\u30fb\u5973\u7acb\u55b0\u5e08\u5217\u4f1d\u201d\u30aa\u30ea\u30b8\u30ca\u30eb\u30fb\u30b5\u30a6\u30f3\u30c9...
p1967
(dp1968
V\u305f\u305d\u304c\u308c\u30d4\u30e7\u30f3\u30d4\u30e7\u30f3
p1969
I0
sVPast memory
p1970
I1
sV\u9759\u304b\u306a\u51b2\u52a8
p1971
I0
sV\u30b0\u30eb\u30fc\u30d7\u30b5\u30a6\u30f3\u30ba
p1972
I5
sVFallschirmjager
p1973
I0
sV\u30d2\u30e1\u30b4\u30c8(\u6620\u753b\u4e3b\u9898\u6b4c\u30d0\u30fc\u30b8\u30e7\u30f3)
p1974
I2
sVPostwar Processing(\u6226\u540e\u51e6\u7406)
p1975
I0
sV\u91d1\u9c7c\u59eb \u30c6\u30fc\u30de2
p1976
I0
sV\u91d1\u9c7c\u59eb \u30c6\u30fc\u30de1
p1977
I0
sVChance of the revenge?
p1978
I1
sV\u8c1c
p1979
I0
sV\u51c6\u5907\u8fd0\u52a8
p1980
I7
sV\u6b4c\u8b21\u306e\u5929\u4f7f
p1981
I6
sV\u53cd\u6483
p1982
I0
sVHistory of HARAJUKU
p1983
I1
sV\u30de\u30df
p1984
I0
sV\u30df\u30ad
p1985
I0
sV\u65e5\u5e38\u3078\u306e\u5e30\u8fd8
p1986
I0
sV\u8c0b\u7565~\u30a2\u30a4\u30c9\u30eb\u306e\u60b2\u5267~
p1987
I0
sV\u91d1\u9c7c\u59eb \u8ffd\u60f3
p1988
I0
sV\u4f1d\u8aac\u306e\u7acb\u5451\u5e08
p1989
I1
sV\u8349\u95f4\u306e\u5165\u53e3
p1990
I0
sVTo the family restaurant
p1991
I0
sV\u8352\u91ce\u306e\u5f10\u633a\u62f3\u94f3
p1992
I0
sV\u5bfe\u5cd9
p1993
I0
sV\u91d1\u9c7c\u59eb \u30d7\u30ed\u30ed\u30fc\u30b0
p1994
I0
sV\u5e7b\u306e\u30d0\u30fc\u30dc\u30f3
p1995
I3
sV\u5b64\u57ce\u306e\u6708
p1996
I1
sV\u6050\u6016\u653f\u6cbb
p1997
I10
sV\u51fa\u53e3\u3078\u306e\u8bf1\u3044
p1998
I0
sVA modulation
p1999
I0
sVAnd the tragedy happened
p2000
I0
sV\u6697\u306e\u5965
p2001
I3
sV\u60aa\u5fb3\u4fdd\u5b89\u5b98
p2002
I0
sV\u94f3\u6483\u6226
p2003
I0
sV\u8fdd\u3044\u306e\u5224\u3089\u306a\u3044\u7537\u305f\u3061
p2004
I13
sV\u30d5\u30a9\u30fc\u30af\u30bd\u30f3\u30b0
p2005
I1
sVTrue memory
p2006
I0
sV\u604d\u60da\u306a\u9999\u6c17
p2007
I0
sV\u8857\u5934\u30c6\u30ec\u30d3\u306e\u601d\u3044\u51fa
p2008
I0
sV\u30a2\u30a4\u30c9\u30eb\u8bde\u751f
p2009
I0
ssV\u4fe1\u957f\u306e\u91ce\u671b Online ~\u51e4\u51f0\u306e\u7ae0~ \u30aa\u30ea\u30b8\u30ca\u30eb\u30fb...
p2010
(dp2011
V\u547d\u8fd0
p2012
I5
sV\u5929\u4e0b\u7edf\u4e00
p2013
I27
sV\u4ec1\u738b
p2014
I13
sV\u8fce\u6483
p2015
I6
sV\u91cc
p2016
I17
sV\u5c9a\u306e\u524d
p2017
I1
sV\u6012\u6d9b
p2018
I13
sV\u96c6\u843d
p2019
I2
sV\u8c6a\u96e8
p2020
I9
sV\u597d\u654c\u624b
p2021
I7
sV\u57ce\u4e0b\u753a
p2022
I6
sV\u51b3\u6226
p2023
I4
ssV\u3089\u3093\u307e1/2 \u97f3\u697d\u306e\u9244\u4eba\u7de8
p2024
(dp2025
V\u68ee\u82f1\u6cbb\u672a\u767a\u8868\u66f2\u96c6\u4f5c\u54c1 1~12
p2026
I5
sV\u5ddd\u4e95\u61b2\u6b21\u540d\u66f2\u30a8\u30af\u30b9\u30c6\u30f3\u30c7\u30c3\u30c9\u30fb\u30f4\u30a1\u30fc\u30b8\u30e7\u30f3\u96c6\u4f5c\u54c1 1~4
p2027
I2
sV\u68ee\u82f1\u6cbb\u540d\u66f2\u30a8\u30af\u30b9\u30c6\u30f3\u30c7\u30c3\u30c9\u30fb\u30f4\u30a1\u30fc\u30b8\u30e7\u30f3\u96c6\u4f5c\u54c1 1~4
p2028
I3
sV\u677e\u6d66\u6643\u4e45\u540d\u66f2\u30a8\u30af\u30b9\u30c6\u30f3\u30c7\u30c3\u30c9\u30fb\u30f4\u30a1\u30fc\u30b8\u30e7\u30f3\u96c6\u4f5c\u54c1 1~4
p2029
I1
sV\u677e\u6d66\u6643\u4e45\u672a\u767a\u8868\u66f2\u96c6\u4f5c\u54c1 1~3
p2030
I2
sV\u5ddd\u4e95\u61b2\u6b21\u672a\u767a\u8868\u66f2\u96c6\u4f5c\u54c1 1~4
p2031
I3
ssVNHK\u30b9\u30da\u30b7\u30e3\u30eb\u201c\u672a\u89e3\u51b3\u4e8b\u4ef6\u201d\u30aa\u30ea\u30b8\u30ca\u30eb\u30b5\u30a6...
p2032
(dp2033
V\u30c1\u30a7\u30a4\u30b9 ~\u8ffd\u8ff9~
p2034
I8
sV\u30b5\u30d5\u30a1\u30ea\u30f3\u30b0 ~\u82e6\u60a9~
p2035
I1
sV\u30b3\u30fc\u30eb\u30c9\u30fb\u30b1\u30fc\u30b9 ~\u672a\u89e3\u51b3\u4e8b\u4ef6~
p2036
I2
sV\u30b3\u30e2\u30fc\u30b7\u30e7\u30f3 ~\u3056\u308f\u3081\u304d~
p2037
I4
sV\u30a8\u30ec\u30b8\u30fc ~\u7537\u305f\u3061\u306e\u633d\u6b4c~
p2038
I1
sV\u672a\u89e3\u51b3\u4e8b\u4ef6\u30e1\u30a4\u30f3\u30c6\u30fc\u30de\u201c\u30e9\u30d3\u30ea\u30f3\u30b9\u201d
p2039
I36
ssS'Avalon - From O.S.T Recordings'
p2040
(dp2041
VCity 13
p2042
I1
sVFlak Tower 22
p2043
I1
sVNine Sisters
p2044
I2
sVLog off
p2045
I7
sVVoyage to AVALON (Orchestra ver.)
p2046
I7
sVMurphy's Ghost
p2047
I1
sVRuins C66
p2048
I1
sVRuins D99
p2049
I1
sVLog in
p2050
I9
sVGray Lady
p2051
I5
sVVoyage to AVALON
p2052
I7
sVThe Ghost Hunting
p2053
I1
sVBishop
p2054
I2
sVTir na mBan
p2055
I1
ssV\u304a\u4f3d\u8349\u5b50 \u97f3\u697d\u96c6\u5f10
p2056
(dp2057
VSORROW (Kawai side)
p2058
I0
sVcry baby (TV\u30b5\u30a4\u30ba)
p2059
I2
sVINTO THE LIGHTS (Kawai side)
p2060
I0
sV\u7f8e\u4eba (Taniuchi side)
p2061
I2
sVNAKED BRAIN (Kawai side)
p2062
I0
sVAWAKENING (Kawai side)
p2063
I2
sVSHINE AND SIGN [Gtr.version] (Kawai side)
p2064
I2
sVTURNING POINT (Kawai side)
p2065
I0
sVHEAVEN OR HELL (Kawai side)
p2066
I0
sVNIGHTMARE (Kawai side)
p2067
I0
sV\u95d8\u30441 Ver2 (Taniuchi side)
p2068
I2
sVLONELINESS (Kawai side)
p2069
I3
sVBEAT GOES ON (Kawai side)
p2070
I0
sV\u72b6\u51b5 (Taniuchi side)
p2071
I0
sVNO ESCAPE [UNDER THE GOD] (Kawai side)
p2072
I0
sV\u660e\u65e5\u306f\u4eca\u65e5\u3068\u540c\u3058\u672a\u6765 (TV\u30b5\u30a4\u30ba) GOMES THE HITMAN
p2073
I5
sV\u4e0d\u4fe1 (Taniuchi side)
p2074
I1
sVDEEP MAZE (Kawai side)
p2075
I0
sVTHE CIRCLE (Kawai side)
p2076
I0
sV\u9965\u9991 (Taniuchi side)
p2077
I0
sVMIND TRIP (Kawai side)
p2078
I1
sVTHE CORE (Kawai side)
p2079
I1
sVDISTANCE (Kawai side)
p2080
I0
sVSOUL MATES (Kawai side)
p2081
I0
sVWEEKEND (Kawai side)
p2082
I0
sVSHINE AND SIGN (Kawai side)
p2083
I1
sVNERVE CELL (Kawai side)
p2084
I0
sVTOKYO NIGHT (Kawai side)
p2085
I2
sV\u6e90\u5149\u306e\u30c6\u30fc\u30de3 ver2 (Taniuchi side)
p2086
I9
sV\u7a76\u660e (Taniuchi side)
p2087
I0
sVSLEEPLESS MOON (Kawai side)
p2088
I0
sV\u91d1\u592a\u90ce (Taniuchi side)
p2089
I3
sVTIME DREAMER [DON'T CRY] (Kawai side)
p2090
I0
sV\u4e8b\u4ef6 (Taniuchi side)
p2091
I0
sVMEMORIES (Kawai side)
p2092
I1
sV\u9053\u4e2d\u3044\u308d\u3044\u308d (Taniuchi side)
p2093
I0
ssVTHE NEXT GENERATION \u30d1\u30c8\u30ec\u30a4\u30d0\u30fc \u9996\u90fd\u6c7a\u6226...
p2094
(dp2095
V\u7070\u8272\u306e\u5e7d\u970a
p2096
I10
sV\u7b2c\u4e8c\u5c0f\u968a\u59cb\u52d5
p2097
I2
sV \u7279\u8eca\u4e8c\u8ab2\u306e\u907a\u7523
p2098
I8
sV \u55e4\u3046\u59731 
p2099
I6
sV\u7a81\u5165 \u0432\u0442\u043e\u0440\u0436\u0435\u043d\u0438\u0435
p2100
I20
sV\u51f6\u5146
p2101
I20
sV\u5225\u96e2\u3068\u518d\u4f1a 
p2102
I11
sVAGM-114 Hellfire 
p2103
I4
sV\u63a2\u7d222
p2104
I1
sV\u55e4\u3046\u59732
p2105
I6
sV\u5357\u96f2\u3057\u306e\u3076\u306e\u30c6\u30fc\u30de 
p2106
I16
sV \u6c7a\u8d772 
p2107
I4
sVGrayGhost
p2108
I9
sV\u55e4\u3046\u59733 
p2109
I2
sV\u8ffd\u60f3\u306e\u6cb3 
p2110
I3
sV\u6c7a\u8d771
p2111
I3
sV\u63a2\u7d221
p2112
I3
ssS'La Sola -Fate/stay night A.OST OUT TRACK...'
p2113
(dp2114
V\u6f06\u9ed2\u306e\u5341\u5b57\u67b6 -taiko ver.-
p2115
I5
sV\u85e4\u306d\u3048\u306e\u30c6\u30fc\u30de -short ver.1-
p2116
I9
sV\u592a\u53e4\u306e\u4f1d\u627f -off percussion ver.-
p2117
I8
sV\u6d17\u793c -strings ver.-
p2118
I4
sV\u89e3\u304d\u653e\u3064\u529b
p2119
I81
sV\u65e5\u5dee\u3057\u306e\u4e2d\u3067 -Kenji Kawai ver.-
p2120
I19
sV\u53d7\u3051\u7d99\u304c\u308c\u3057\u523b\u5370 -vocal ver.-
p2121
I27
sV\u85e4\u306d\u3048\u306e\u30c6\u30fc\u30de -short ver.2-
p2122
I5
sV\u9b54\u57ce\u306e\u7f60
p2123
I5
sV\u5922\u5e7b\u306e\u9b42
p2124
I6
sV\u51ac\u306e\u5996\u7cbe -a cappella ver.-
p2125
I21
sV\u61a7\u308c\u306e\u512a\u7b49\u751f -off melody ver.-
p2126
I6
sV\u9b54\u8853\u56de\u8def
p2127
I5
sV\u904b\u547d\u306e\u591c -piano ver.-
p2128
I313
sV\u51f6\u5146 -loop ver.-
p2129
I11
sV\u5951\u7d04 -off strings ver.-
p2130
I44
sVLa Sola
p2131
I193
sV\u51ac\u6728\u9060\u666f -off strings ver.-
p2132
I34
sV\u9a0e\u58eb\u738b\u306e\u8a87\u308a -off percussion ver.-
p2133
I193
sV\u7d50\u754c
p2134
I3
sV\u6d17\u793c -short ver.-
p2135
I8
ssV\u304a\u308d\u3061 \u30aa\u30ea\u30b8\u30ca\u30eb\u30fb\u30b5\u30a6\u30f3\u30c9\u30c8\u30e9\u30c3\u30af
p2136
(dp2137
V\u72c2\u6f14\u306e\u7ec8\u308f\u308a
p2138
I1
sV\u9b54\u955c
p2139
I1
sV\u4e88\u5146\u3068\u5f71
p2140
I1
sV\u7231\u3092\u3059\u308b\u4eba-Orochi\u2019s Theme
p2141
I1
sV\u9b42\u306e\u9f13\u52a8~\u304a\u308d\u3061\u306e\u77b3
p2142
I2
sV\u304a\u308d\u3061\u306e\u30c6\u30fc\u30de~\u65f6\u7a7a\u306e\u77b3
p2143
I7
sV\u307e\u305f\u3042\u3057\u305f
p2144
I2
sV\u5f02\u754c\u304b\u3089\u306e\u8bf1\u3044
p2145
I2
sV\u60c5\u5ff5
p2146
I4
sV\u6226\u6817\u306e\u5bb4
p2147
I31
sV\u6df1\u7231\u306e\u679c\u3066\u306b
p2148
I3
sV\u96fe\u4e2d\u306e\u60f3\u3044
p2149
I1
sV\u70bc\u72f1\u306e\u606f\u5439
p2150
I3
sV\u304a\u308d\u3061\u306e\u30c6\u30fc\u30de~\u60a0\u4e45\u306e\u5b88\u4eba
p2151
I3
sV\u7231\u306e\u6df1\u6e0a
p2152
I2
sV\u9b42\u306e\u5815\u843d
p2153
I3
ssV\u673a\u52a8\u6226\u58eb\u30ac\u30f3\u30c0\u30e0OO ORIGINAL SOUND TRACK ...
p2154
(dp2155
VPrototype \u3010TV-Size6\u3011 \u3010BONUS TRACKS\u3011
p2156
I94
sVPRAYER
p2157
I7
sVPrototype \u3010TV-Size5\u3011 \u3010BONUS TRACKS\u3011
p2158
I5
sVPrototype \u3010TV-Size4\u3011 \u3010BONUS TRACKS\u3011
p2159
I71
sVRESOLVE
p2160
I10
sVO-RAISER
p2161
I96
sVAFFECTIONATELY
p2162
I23
sVDECISIVE BATTLE
p2163
I163
sVSOLITARINESS
p2164
I27
sVSITUATION
p2165
I8
sVINVASION
p2166
I18
sVMEMENTO MORI
p2167
I14
sVSPIRIT
p2168
I5
sVCALMNESS
p2169
I31
sVRELIEF
p2170
I7
sVtrust you \u3010TV-Size\u3011 \u3010BONUS TRACKS\u3011
p2171
I847
sVMASURAO
p2172
I31
sVHOME
p2173
I12
sVTRAGEDY
p2174
I9
sVPrototype \u3010TV-Size1\u3011 \u3010BONUS TRACKS\u3011
p2175
I29
sVOO-RAISER
p2176
I38
sVTACTICS
p2177
I6
sVSIGN
p2178
I14
sVPrototype \u3010TV-Size2\u3011 \u3010BONUS TRACKS\u3011
p2179
I34
sV\u511a\u304f\u3082\u6c38\u4e45\u306e\u30ab\u30ca\u30b7 \u3010TV-Size\u3011 \u3010BONUS TRACKS\u3011
p2180
I578
sVARTIFICE
p2181
I4
sVCOMEBACK
p2182
I6
sVTRANS-AM RAISER
p2183
I712
sVAUTOMATON
p2184
I9
sVCOUP D\u2019ETAT.
p2185
I8
sVPrototype \u3010TV-Size3\u3011 \u3010BONUS TRACKS\u3011
p2186
I24
sVSCRAMBLE
p2187
I19
sVGRIEF
p2188
I19
sVRECOLLECTION
p2189
I7
sVDECLARATION
p2190
I11
ssS'Eden of the East O.S.T'
p2191
(dp2192
VYuuutsu wo Fukitobase!
p2193
I1
sVBlack Swan
p2194
I3
sVHajimari no Kuuki
p2195
I3
sVYuuyake
p2196
I13
sVBlue Monday
p2197
I7
sVShopping Mall
p2198
I3
sVJUIZ
p2199
I3
sVEden of The East
p2200
I12
sVfuturistic imagination
p2201
I35
sVAtatakai Ame
p2202
I3
sVUnbalance
p2203
I3
sVMitasareta Koritsu
p2204
I7
sVSociety
p2205
I1
sVAme no Eden
p2206
I1
sVFutari de Te wo Tsunai de
p2207
I5
sVHisoyakana Takurami -Saki no Theme-
p2208
I2
sVWinning run
p2209
I2
sVNaked Prince
p2210
I4
sVHatsukoi
p2211
I17
sVAKX-20000
p2212
I2
sVThe Game
p2213
I1
sVNo name in D.C. -Takizawa no Theme-
p2214
I7
sVReveal the World
p2215
I251
sVErabareshi Mono
p2216
I2
sVFALLING DOWN
p2217
I60
sVSupporter
p2218
I1
ssV\u4fe1\u957f\u306e\u91ce\u671b Online \u30b3\u30f3\u30d7\u30ea\u30fc\u30c8\u30fb\u30b5\u30a6\u30f3\u30c9...
p2219
(dp2220
V\u90aa\u60aa
p2221
I3
sV\u524d\u54e8\u6226
p2222
I2
sV\u6e05\u6d44
p2223
I5
sV\u7d76
p2224
I1
sV\u970a\u6c17
p2225
I1
sV\u65b0\u661f
p2226
I1
sV\u795e\u7363\u6226
p2227
I6
sV\u9244\u58c1
p2228
I1
sV\u521b\u59cb
p2229
I3
sV\u5e73\u5b89
p2230
I6
sV\u9006\u5883
p2231
I15
sV\u7126\u71e5
p2232
I6
sV\u51b2\u6483
p2233
I3
sV\u96be\u95a2
p2234
I4
sV\u840c\u82bd
p2235
I23
sV\u9a12\u4e71
p2236
I4
sV\u5bfe\u5cd9
p2237
I5
sV\u6700\u7ec8\u51b3\u6226
p2238
I17
sV\u5e72\u5f0b
p2239
I2
sV\u5e73\u5730
p2240
I10
sV\u98ce\u96c5
p2241
I18
sV\u4e89\u8987
p2242
I3
sV\u5929\u5b59\u964d\u4e34
p2243
I1
sV\u679c\u6562
p2244
I3
sV\u72c2\u4e71
p2245
I1
sV\u95ed\u585e
p2246
I1
sV\u7834\u90aa
p2247
I9
sV\u8d25\u5317
p2248
I3
sV\u90aa\u60aa \u7834\u5929Ver.
p2249
I3
sV\u96c5\u697d\u30ed\u30c3\u30af
p2250
I7
sV\u683c\u5f0f
p2251
I6
sV\u516b\u96f7\u795e
p2252
I1
sV\u96ea\u56fd
p2253
I9
sV\u5e7b\u5f71\u9986
p2254
I2
sV\u5546
p2255
I14
sV\u6211\u304c\u5bb6
p2256
I5
sV\u5171\u95d8
p2257
I3
sV\u5bfe\u51b3
p2258
I5
sV\u653b\u52bf
p2259
I5
sV\u7729\u8ff7
p2260
I8
sV\u7e41\u534e
p2261
I5
sV\u9f99\u722a\u5c71
p2262
I4
sV\u52c7\u6562
p2263
I3
sV\u60b2\u54c0
p2264
I3
sV\u80dc\u5229
p2265
I4
sV\u6df7\u4e71
p2266
I8
sV\u754f\u6016
p2267
I1
sV\u7adc\u864e
p2268
I17
sV\u8fdd\u548c
p2269
I7
sV\u6d77\u56fd
p2270
I6
sV\u6253\u7834
p2271
I8
sV\u4e91\u5cad
p2272
I5
sV\u7834\u58ca\u795e
p2273
I1
sV\u68ee\u6797
p2274
I10
sV\u795e\u306e\u793e
p2275
I4
sV\u795e\u5723
p2276
I4
sV\u6b66
p2277
I3
sV\u4eac
p2278
I15
sV\u6c38\u8bc0
p2279
I5
sV\u5fe0\u4e49
p2280
I2
sV\u5c71\u56fd
p2281
I3
sV\u519b\u56fd
p2282
I5
sV\u51fa\u6483
p2283
I5
sV\u8fdb\u822a
p2284
I4
sV\u9006\u8ee2
p2285
I1
sV\u795e\u6226
p2286
I8
sV\u6226\u534e
p2287
I1
sV\u5f02\u6b21\u5143
p2288
I1
sV\u98ce\u4e91
p2289
I11
sV\u5e7d\u970a
p2290
I4
sV\u51fa\u9635
p2291
I1
ssV\u9f99\u864e\u95e8\u7535\u5f71\u539f\u58f0\u5e26
p2292
(dp2293
V\u53cd\u653b
p2294
I24
sV\u9f99\u864e\u95e8
p2295
I8
sV\u9047
p2296
I7
sV\u5706
p2297
I9
sV\u706d
p2298
I14
sV\u672a
p2299
I9
sV\u71c3\u70e7
p2300
I24
sV\u6307\u793a
p2301
I3
sV\u75db\u901d
p2302
I9
sV\u5bfb\u627e
p2303
I27
sV\u5371
p2304
I7
sV\u521b
p2305
I75
sV\u672c
p2306
I11
sV\u575a\u6301
p2307
I7
sV\u6218
p2308
I34
sV\u6d3b
p2309
I11
sV\u7a7a
p2310
I3
sV\u75db
p2311
I12
sV\u609f
p2312
I6
sV\u653b
p2313
I17
ssV\u30ef\u30a4\u30eb\u30c97 \u30aa\u30ea\u30b8\u30ca\u30eb\u30b5\u30a6\u30f3\u30c9\u30c8\u30e9\u30c3\u30af
p2314
(dp2315
VWe Are Wild 7
p2316
I1
sVWild 7
p2317
I1
sVFamily Secret
p2318
I0
sVMaverick
p2319
I0
sVWelcome to Public Security Unit
p2320
I0
sVTipsy
p2321
I0
sVLicence to Kill
p2322
I1
sVR.I.P.
p2323
I1
sVJustice
p2324
I0
sVWho Should I Shoot?
p2325
I0
sVOne Night Stand
p2326
I0
sVAnother Rumble Fish
p2327
I0
sVBattle for Friendship
p2328
I1
sVGone
p2329
I14
sVRumble Fish
p2330
I0
sVDirty Tuxedo
p2331
I0
sVA New Recruit
p2332
I1
sVTrap
p2333
I1
sVLet's Go Wild
p2334
I1
sVNext Mission
p2335
I0
sVFinal Mission
p2336
I2
sVDisclosure
p2337
I1
ssV\u7acb\u55b0\u5e08\u5217\u4f1d-\u305f\u3061\u3050\u3044\u3057 \u308c\u3064\u3067\u3093-
p2338
(dp2339
V\u30ab\u30ec\u30fc\u5c4b\u306e\u5370\u5ea6\u4eba Part2
p2340
I0
sV\u7834\u706d\u306e\u58f0
p2341
I0
sV\u30d0\u30fc\u30ac\u30fc\u30bf\u30a4\u30e0
p2342
I4
sV\u7d4c\u6e08\u590d\u5174\u306e\u30c6\u30fc\u30de
p2343
I3
sV\u9b54\u6027\u306e\u5973\u72d0
p2344
I0
sV\u54ed\u304d\u306e\u72ac\u4e38
p2345
I0
sV\u8feb\u308a\u6765\u308b\u4e07\u535a
p2346
I1
sV\u5984\u60f3\u30d6\u30ae
p2347
I2
sV\u4e88\u77e5\u91ce\u5c4b\u5012\u7523
p2348
I0
sV\u30ab\u30ec\u30fc\u5c4b\u306e\u5370\u5ea6\u4eba
p2349
I1
sV\u3042\u309d\u8c01\u304b\u77e5\u308b
p2350
I1
sV\u72ac\u4e38\u306e\u9003\u8d70
p2351
I0
sV\u96ea\u306e\u30de\u30c3\u30cf\u8f69
p2352
I0
sV\u7070\u8272\u306e\u82b1\u3073\u3089 \u8ffd\u60f3
p2353
I1
sV\u691c\u6b7b\u62a5\u544a
p2354
I0
sV\u30eb\u30b5\u30f3\u30c1\u30de\u30f3\u306e\u7ec8\u7109
p2355
I0
sV\u4e0d\u8fde\u7d9a\u7ebf\u4e0a\u306e\u7cfb\u8c31
p2356
I0
sV\u725b\u4e94\u90ce\u51f6\u72b6\u65c5
p2357
I1
sVopening \u8d25\u6226
p2358
I1
sV\u91ce\u826f\u72ac\u305f\u3061\u306e\u633d\u6b4c
p2359
I0
sV\u30c7\u30f3\u30c7\u30b1\u30c7\u30b1\u30c7\u30b1
p2360
I0
ssV\u30ac\u30f3\u30d1\u30ec\u30fc\u30c9\u30fb\u30de\u30fc\u30c1 ~\u65b0\u305f\u306a\u308b\u884c\u519b\u6b4c~ \u30aa...
p2361
(dp2362
V\u65b0\u305f\u306a\u308b\u884c\u519b\u6b4c
p2363
I3
sV\u5e7b\u306e\u654c\u5f71
p2364
I0
sV\u5e0c\u671b\u3078\u7d9a\u304f\u884c\u8fdb
p2365
I1
sV\u67e0\u6aac\u8272\u306e\u9ec4\u660f
p2366
I3
sV\u7d27\u5f20\u306e\u7cf8
p2367
I0
sV\u5fc3\u8dc3\u308b\u5b63\u8282
p2368
I1
sV\u6c38\u8fdc\u306e\u7948\u308a
p2369
I1
sV\u675f\u306e\u95f4\u306e\u4f11\u606f
p2370
I6
sV\u6226\u95d8\u3078\u306e\u642d\u4e57
p2371
I3
sV\u4e0d\u673a\u5acc\u306a\u89c6\u7ebf
p2372
I0
sV\u8efd\u3084\u304b\u306a\u5348\u540e
p2373
I1
sV\u672a\u6765\u3078\u306e\u9636\u6bb5
p2374
I1
sV\u829d\u6751\u30fb\u6804\u5149\u306e\u6b74\u53f2
p2375
I11
sV\u98de\u6765\u3059\u308b\u7c89\u5c18
p2376
I0
sV\u65cb\u56de\u3059\u308b\u7206\u97f3
p2377
I1
sV\u5ec3\u589f\u306e\u6b4c\u58f0
p2378
I1
sV\u51b3\u6226\u306e\u58eb\u9b42
p2379
I0
sV\u6f02\u6cca\u306e\u7a7a\u6c17
p2380
I0
sV\u5fe7\u90c1\u306e\u6c17\u914d
p2381
I0
sV\u6df1\u6e0a\u306a\u308b\u4e0d\u5b89
p2382
I0
sV\u771f\u5b9f\u306e\u6249 ~TV edition~
p2383
I3
sV\u5b89\u3089\u304e\u306e\u97f3\u8272
p2384
I1
sV\u56f0\u60eb\u306e\u6b69\u8c03
p2385
I0
sV\u6697\u6697\u304b\u3089\u306e\u6078\u54ed
p2386
I0
sV\u7720\u308c\u306a\u3044\u591c
p2387
I0
sV\u81c6\u75c5\u306a\u5b50\u732b
p2388
I0
sV\u9ad8\u6d01\u306e\u90e8\u961f
p2389
I7
sV\u660e\u65e5\u3078\u306e\u6249
p2390
I1
ssS'Apocalypse Second World War'
p2391
(dp2392
VThe trap of invasion
p2393
I7
sVRetirement
p2394
I9
sVThe Ghetto
p2395
I7
sVPaulu
p2396
I7
sVPeace
p2397
I6
sVRelease 2
p2398
I8
sVHolocaust
p2399
I2
sVAttack of the Pacific
p2400
I30
sVThe offensive
p2401
I60
sVFirst line
p2402
I5
sVRelease
p2403
I3
sVMacArthur
p2404
I12
sVLife Before War
p2405
I88
sVThe rise of Nazism
p2406
I10
sVThe lull
p2407
I6
ssVNHK\u30b9\u30da\u30b7\u30e3\u30eb\u201c\u707c\u70ed\u30a2\u30b8\u30a2\u201d- EP
p2408
(dp2409
V\u707c\u70ed\u30a2\u30b8\u30a2 BGM1
p2410
I0
sV\u707c\u70ed\u30a2\u30b8\u30a2 \u30a8\u30f3\u30c7\u30a3\u30f3\u30b0\u30c6\u30fc\u30de
p2411
I2
sV\u707c\u70ed\u30a2\u30b8\u30a2 BGM2
p2412
I0
ssV\u53f6\u95ee 2 \u7535\u5f71\u539f\u58f0\u5927\u789f
p2413
(dp2414
V\u5e08\u5f92
p2415
I43
sV\u4e0d\u76f8\u4e0a\u4e0b
p2416
I13
sV\u805a\u3001\u6563
p2417
I134
sV\u53f6\u95ee
p2418
I1129
sV\u5f53\u4e0b
p2419
I11
sV\u6b63\u4e49
p2420
I4
sV\u65e0\u660e
p2421
I14
sV\u56de\u5bb6
p2422
I10
sV\u524d\u5915
p2423
I2
sV\u76ee\u7a7a\u4e00\u5207
p2424
I9
sV\u953b
p2425
I7
sV\u9ad8\u4e0b\u7acb\u89c1
p2426
I26
sV\u4ec1\u4e49
p2427
I7
sV\u4ee5\u6b66\u4f1a\u53cb
p2428
I11
sV\u8bb2\u624b
p2429
I5
sV\u6cf0\u7136
p2430
I4
sV\u540c\u5fc3
p2431
I26
sV\u6b66
p2432
I21
sV\u6218\u573a
p2433
I30
sV\u6270
p2434
I4
sV\u6b62\u6208\u4e3a\u6b66
p2435
I5
sV\u8425\u6551
p2436
I8
ssV\u5357\u6781\u65e5\u5fd7 O.D.T
p2437
(dp2438
V\u30db\u30ef\u30a4\u30c8\u30a2\u30a6\u30c8
p2439
I0
sV\u30bb\u30ec\u30ca\u30fc\u30c7
p2440
I0
sV\u6b7b\u3093\u3060\u30a4\u30ae\u30ea\u30b9\u4eba
p2441
I2
sV\u8aac\u5f97
p2442
I0
sV\u5c9a\u306e\u58f0
p2443
I0
sV\u30be\u30fc\u30f3
p2444
I0
sV\u30e1\u30a4\u30f3\u30fb\u30c6\u30fc\u30de(\u30a4\u30e0\u30fb\u30d2\u30e7\u30f3\u30b8\u30e5)
p2445
I2
sV\u5ec3\u57fa\u5730
p2446
I0
sV\u96ea\u306e\u4e2d\u3067
p2447
I0
sV\u767d\u3044\u7802\u6f20
p2448
I0
sV\u6c37\u306e\u4e2d\u306e\u76ee
p2449
I0
sV\u96ea\u7537
p2450
I0
sV\u9009\u629e
p2451
I0
sV\u30b0\u30ec\u30fc\u30fb\u30ec\u30c7\u30a3-\u5230\u8fbe\u4e0d\u80fd\u70b9
p2452
I1
sV\u65d7
p2453
I1
sV\u8703\u6c17
p2454
I0
sV\u30c9\u30d2\u30e7\u30f3\u3068\u30df\u30f3\u30b8\u30a7
p2455
I0
sV\u767d\u3044\u5f71
p2456
I2
sV\u30a8\u30f3\u30c7\u30a3\u30f3\u30b0\u30fb\u30c6\u30fc\u30de
p2457
I0
sV\u30c7\u30b8\u30e3\u30fb\u30f4\u30e5
p2458
I0
sV\u7a74
p2459
I0
sV\u5927\u3044\u306a\u308b\u72c2\u6c17
p2460
I0
ssV\u6620\u753b\u300c\u4e16\u754c\u306f\u4eca\u65e5\u304b\u3089\u541b\u306e\u3082\u306e\u300d\u30aa\u30ea\u30b8\u30ca\u30eb...
p2461
(dp2462
V\u304a\u51fa\u304b\u3051
p2463
I6
sV\u544a\u767d
p2464
I6
sV\u3055\u3089\u306a\u308b\u5e0c\u671b
p2465
I5
sV\u4e00\u6b69\u305a\u3064
p2466
I5
sV\u81ea\u7531\u3068\u4e0d\u81ea\u7531
p2467
I7
sV\u771f\u5b9f\u306e\u30c6\u30fc\u30de
p2468
I62
sV\u75f4\u8a71\u55a7\u5629
p2469
I3
sV\u65c5\u7acb\u3061
p2470
I9
sV\u7570\u4e16\u754c
p2471
I18
sV\u79c1\u306e\u7d75
p2472
I6
sV\u885d\u6483\u306b\u5099\u3048\u3088\uff01
p2473
I5
sV\u79c1\u306e\u7d75\u2161
p2474
I2
sV\u306a\u308b\u306f\u3084\u3067\uff01
p2475
I9
sV\u521d\u4ed5\u4e8b
p2476
I4
sV\u885d\u6483\u306b\u5099\u3048\u3088\uff01\u2161
p2477
I6
sV\u3054\u3081\u3093\u306a\u3055\u3044
p2478
I7
sV\u9ed2\u305a\u304f\u3081\u306e\u5973
p2479
I7
sV\u8a18\u61b6
p2480
I13
sV\u5e0c\u671b
p2481
I5
sV\u8fd4\u305b\u306a\u304f\u3066
p2482
I12
ssS'Kenji Kawai Original Masters vol.3 ~Work...'
p2483
(dp2484
V\u65b0\u65e5\u672c\u98a8\u571f\u8a18 M-1
p2485
I1
sV\u65b0\u65e5\u672c\u98a8\u571f\u8a18 M-2
p2486
I3
sV\u65b0\u65e5\u672c\u98a8\u571f\u8a18 M-3
p2487
I1
sV\u65b0\u65e5\u672c\u98a8\u571f\u8a18 M-4
p2488
I1
sV\u65b0\u65e5\u672c\u98a8\u571f\u8a18 M-5
p2489
I3
sV\u9244\u306e\u9aa8 M-3 (\u6226\u53cb\u306e\u6b7b)
p2490
I0
sV\u9244\u306e\u9aa8 M-5 (\u9244\u306e\u8a87\u308a)
p2491
I0
sV\u6ff9\u6771\u7dba\u8b5a M-4
p2492
I0
sV\u65b0\u65e5\u672c\u98a8\u571f\u8a18 M-9
p2493
I2
sV\u6ff9\u6771\u7dba\u8b5a M-6
p2494
I0
sV\u6ff9\u6771\u7dba\u8b5a M-7
p2495
I0
sV\u30af\u30e9\u30a4\u30f3\u306e\u58f7 M-1 \u3059\u3079\u3066\u306e\u7d42\u308f\u308a
p2496
I0
sV\u6ff9\u6771\u7dba\u8b5a M-1
p2497
I2
sV\u6ff9\u6771\u7dba\u8b5a M-2
p2498
I0
sV\u6ff9\u6771\u7dba\u8b5a M-3
p2499
I0
sV\u9244\u306e\u9aa8 M-12A (\u307e\u306a\u3056\u3057)
p2500
I0
sV\u9244\u306e\u9aa8 M-10 (\u571f\u66dc\u30c9\u30e9\u30de\u300c\u9244\u306e\u9aa8\u300d
p2501
I0
sV\u30af\u30e9\u30a4\u30f3\u306e\u58f7 M-3 \u8b0e\u304c\u3068\u3051\u308b
p2502
I0
sV\u9244\u306e\u9aa8 M-19
p2503
I1
sV\u9244\u306e\u9aa8 M-2 (Survive)
p2504
I1
sV\u9244\u306e\u9aa8 M-13 (\u5e73\u592a)
p2505
I0
sV\u9244\u306e\u9aa8 M-11 (shield machine)
p2506
I0
sV\u9244\u306e\u9aa8 M-24 (\u5165\u672d\u958b\u59cb)
p2507
I0
sV\u30a2\u30ea\u30b9\u306e\u304a\u3044\u3057\u3044\u9769\u547d Opening
p2508
I0
sV\u9244\u306e\u9aa8 M-9 (\u6f6e\u6d41)
p2509
I0
sV\u65b0\u65e5\u672c\u98a8\u571f\u8a18 M-6
p2510
I0
sV\u30af\u30e9\u30a4\u30f3\u306e\u58f7 M-2 \u8b0e
p2511
I0
sV\u65b0\u65e5\u672c\u98a8\u571f\u8a18 M-7
p2512
I2
sV\u9244\u306e\u9aa8 M-26 (\u30d5\u30a3\u30af\u30b5\u30fc)
p2513
I0
sV\u9244\u306e\u9aa8 M-15 (\u3064\u306a\u3050\u7d46)
p2514
I0
sV\u30af\u30e9\u30a4\u30f3\u306e\u58f7 M-4 \u884c\u52d5
p2515
I0
sV\u65b0\u65e5\u672c\u98a8\u571f\u8a18 M-2 (Piano ver.)
p2516
I1
sV\u9244\u306e\u9aa8 M-12B
p2517
I0
sV\u9244\u306e\u9aa8 M-17 (\u672a\u6765\u3078)
p2518
I0
sV\u9244\u306e\u9aa8 M-4 (\u9759\u304b\u306a\u71b1)
p2519
I0
sV\u65b0\u65e5\u672c\u98a8\u571f\u8a18 M-11B
p2520
I1
sV\u9244\u306e\u9aa8 M-8
p2521
I0
sV\u9244\u306e\u9aa8 M-20 (\u5730\u9762\u306e\u4e0b)
p2522
I0
sV\u9244\u306e\u9aa8 M-23 (CHASE)
p2523
I0
sVPROJECT_MERMAID
p2524
I4
sV\u9244\u306e\u9aa8 M-14 (\u840c)
p2525
I1
sV\u30af\u30e9\u30a4\u30f3\u306e\u58f7 Ending (40\u79d2type)
p2526
I0
sV\u9244\u306e\u9aa8 M-16 (\u5e73\u592a\u3068\u840c)
p2527
I0
sV\u9244\u306e\u9aa8 M-6
p2528
I0
sV\u65b0\u65e5\u672c\u98a8\u571f\u8a18 M-8
p2529
I4
sV\u9244\u306e\u9aa8 M-25 (\u7591\u5fc3)
p2530
I0
sV\u9244\u306e\u9aa8 M-22 (\u696d\u754c\u518d\u7de8)
p2531
I0
sV\u9244\u306e\u9aa8 M-21
p2532
I0
sV\u30af\u30e9\u30a4\u30f3\u306e\u58f7 \u58f7
p2533
I0
sV\u30af\u30e9\u30a4\u30f3\u306e\u58f7 M-1 (Short ver.)
p2534
I0
sV\u30af\u30e9\u30a4\u30f3\u306e\u58f7 Opening
p2535
I0
sVMeet the Music
p2536
I7
sV\u9244\u306e\u9aa8 M-29 (\u602a\u6587\u66f8)
p2537
I1
sV\u9244\u306e\u9aa8 M-7 (\u5bfe\u5cd9\u3059\u308b\u7537\u305f\u3061)
p2538
I1
sV\u9244\u306e\u9aa8 M-1B
p2539
I1
sV\u30af\u30e9\u30a4\u30f3\u306e\u58f7 Ending (30\u79d2type)
p2540
I40
sV\u30a2\u30ea\u30b9\u306e\u304a\u3044\u3057\u3044\u9769\u547d Ending
p2541
I0
sV\u30af\u30e9\u30a4\u30f3\u306e\u58f7 Opening (Title BGM ver.)
p2542
I0
sV\u65b0\u65e5\u672c\u98a8\u571f\u8a18 M-11
p2543
I0
sV\u9244\u306e\u9aa8 M-27 (\u75be\u8d70)
p2544
I0
ssV\u30c6\u30ec\u30d3\u671d\u65e5 \u6728\u66dc\u30c9\u30e9\u30de\u300cBORDER\u300d\u30aa\u30ea\u30b8\u30ca\u30eb...
p2545
(dp2546
V\u8ffd\u61b6
p2547
I26
sV\u5f77\u5fa8
p2548
I5
sV\u767a\u73fe
p2549
I5
sV\u7126\u71e5
p2550
I4
sV\u524d\u9032
p2551
I15
sV\u9727\u4e2d
p2552
I6
sV\u8d8a\u5883
p2553
I686
sV\u56de\u5e30
p2554
I31
sV\u4e88\u5146
p2555
I11
sV\u6d78\u98df
p2556
I5
sV\u610f\u5fd7
p2557
I5
sV\u707d\u798d
p2558
I5
sV\u5147\u60aa
p2559
I4
sV\u653b\u9632
p2560
I6
sV\u59cb\u52d5
p2561
I3
sV\u5239\u90a3
p2562
I14
sV\u6025\u8ee2
p2563
I13
sV\u4fb5\u5165
p2564
I11
sV\u8ffd\u8de1
p2565
I6
sV\u75d5\u8de1
p2566
I4
sV\u5be9\u5224
p2567
I6
sV\u60aa\u679c
p2568
I8
sV\u52d5\u6a5f
p2569
I4
sV\u5e78\u798f
p2570
I13
sV\u4ea4\u611f
p2571
I11
sV\u5b64\u9ad8
p2572
I28
sV\u75be\u99c6
p2573
I22
sV\u5185\u5075
p2574
I11
ssV\u6cb8\u817e\u90fd\u5e02
p2575
(dp2576
V\u6cb8\u817e\u90fd\u5e02ENDING
p2577
I2
sVLatin
p2578
I1
sVJOHANNESBURG2
p2579
I1
sVJOHANNESBURG1
p2580
I0
sVTOKYO
p2581
I3
sV\u6cb8\u817e\u90fd\u5e02Opening
p2582
I13
sV\u6cb8\u817e\u90fd\u5e02BGM1
p2583
I3
sV\u6cb8\u817e\u90fd\u5e02BGM3
p2584
I0
sV\u6cb8\u817e\u90fd\u5e02BGM2
p2585
I2
sV\u6cb8\u817e\u90fd\u5e02BGM4
p2586
I3
ssS'Dragon Fist Image Album'
p2587
(dp2588
VSugisarishi Hi no Boku ni
p2589
I0
sVJokyoku-Subete no Hajimarini
p2590
I3
sVFIGHT ON FIRE
p2591
I0
sVInori
p2592
I2
sVFuyuka
p2593
I1
sVJewelry Girl
p2594
I1
sVShuukyoku-Tsuioku no Kanata ni
p2595
I1
sVPassing Cry
p2596
I0
sVDragon Fist
p2597
I1
sVRettou Jinrai
p2598
I0
ssV\u4ec4\u6697\u3044\u6c34\u306e\u5e95\u304b\u3089
p2599
(dp2600
V\u5c0f\u3055\u306a\u4eba\u5f71
p2601
I3
sV\u56da\u308f\u308c\u3057\u8005\u306f...
p2602
I6
sV\u5524\u304d
p2603
I4
sV\u5ec3\u589f\u306e\u4e2d\u3078
p2604
I3
sV\u5146\u3057
p2605
I2
sV\u9752\u7a7a~film track~(\u30b9\u30ac\u30b7\u30ab\u30aa)
p2606
I6
sV\u6df1\u304d\u6e0a\u3088\u308a
p2607
I7
sV\u6c34\u306b\u8bf1\u308f\u308c
p2608
I1
sV\u6d41\u308c\u304f\u308b\u6c34\u306b
p2609
I4
sV\u4ea4\u9519
p2610
I3
sV\u9ec4\u8272\u3044\u68a6
p2611
I4
sV\u61a7\u308c
p2612
I1
sV\u899a\u9192
p2613
I20
ssS'Sound of GANTZ PERFECT ANSWER'
p2614
(dp2615
V\u7ed3\u3070\u308c\u305f\u624b
p2616
I22
sV\u5bfe\u5cd9
p2617
I1
sV\u591a\u6075\u3068\u306e\u7ea6\u675f
p2618
I8
sV\u5bbf\u547d\u306e\u30b3\u30fc\u30c0
p2619
I2
sV\u8ffd\u60f3
p2620
I5
sV\u590d\u8b90 \u6b7b\u8005\u305f\u3061\u306e\u6226\u3044
p2621
I4
sV\u5e30\u8fd8
p2622
I1
sV\u30cf\u30a4\u30b9\u30d4\u30fc\u30c9 \u30b1\u30a4\u30aa\u30b9
p2623
I2
sV\u6700\u540e\u306e\u8ee2\u9001
p2624
I8
sVRUN UP KURONO
p2625
I5
sVA PERFECT ANSWER FROM THE GANTZ - \u66d9\u5149-
p2626
I67
sV\u8bb0\u5fc6
p2627
I16
sVTHE LAST MISSION
p2628
I1
sVINTO THE GANTZ FIELD
p2629
I6
sV\u9ed2\u3044\u7403\u306e\u90e8\u5c4b
p2630
I1
sV\u673a\u8f74\u4e0a\u306e\u5bfe\u51b3
p2631
I2
sV\u51b3\u6226
p2632
I1
sV\u65e0\u9650\u8f68\u9053
p2633
I1
ssV\u30bf\u30c3\u30c1 \u3042\u308c\u304b\u3089\u3001\u541b\u306f\u30fb\u30fb\u30fb \u30aa\u30ea\u30b8\u30ca\u30eb\u30b5...
p2634
(dp2635
V\u65b0\u305f\u306a\u308b\u6311\u6226
p2636
I1
sV\u9999\u7ec7\u306e\u544a\u767d
p2637
I4
sV\u9999\u7ec7\u306e\u8c1c
p2638
I1
sV\u9999\u7ec7\u306e\u30c6\u30fc\u30de
p2639
I0
sV\u3082\u3046\u3072\u3068\u308a\u306e\u7231
p2640
I3
sV\u3059\u308c\u8fdd\u30462\u4eba
p2641
I3
sVHi Hi High
p2642
I6
sV\u5357\u3068\u9999\u7ec7~\u604b\u306e\u5bfe\u5cd9
p2643
I1
sV3\u5e74\u540e\u2026
p2644
I4
sV\u95d8\u5fd7\u3075\u305f\u305f\u3073
p2645
I1
sV\u305d\u308c\u305e\u308c\u306e\u7231
p2646
I13
sV\u3055\u3088\u306a\u3089\u306e\u52c7\u6c17
p2647
I2
sV\u9752\u6625\u306e\u7dcf\u51b3\u7b97
p2648
I2
sV\u68a6\u306e\u3064\u3065\u304d
p2649
I1
sV\u3042\u308c\u304b\u3089,\u541b\u306f\u2026
p2650
I139
sV\u30bf\u30c3\u30c1(\u30d5\u30e9\u30a4\u30c7\u30fc\u30ca\u30a4\u30c8\u30fb\u30f4\u30a1\u30fc\u30b8\u30e7\u30f3)
p2651
I6
sV\u30b5\u30de\u30fc\u30fb\u30aa\u30d6\u30fb\u30a8\u30f3\u30b8\u30a7\u30eb
p2652
I1
sV\u30e1\u30c3\u30bf\u6253\u3061\u306e\u30de\u30a6\u30f3\u30c9
p2653
I0
sV\u56de\u60f3
p2654
I3
sV\u3044\u3064\u3082\u306e\u4e0a\u6749\u5bb6
p2655
I0
sV\u9999\u7ec7\u306e\u8fc7\u53bb
p2656
I2
sV2\u3064\u306e\u845b\u85e4
p2657
I0
sV\u94c3\u5b50\u306e\u7948\u308a
p2658
I1
sV\u65c5\u7acb\u3061\u306e\u30ad\u30b9
p2659
I3
sV\u8a00\u53f6\u306b\u3067\u304d\u306c\u60f3\u3044
p2660
I2
ssS'The Ring 2'
p2661
(dp2662
V\u6028\u970a\u306e\u55eb\u304d
p2663
I15
sV\u5bbf\u547d
p2664
I15
sV\u30ea\u30f3\u30b02~TRAILER~
p2665
I36
sV\u9707\u9a87
p2666
I31
sV\u9ed2\u3044\u6d9b\u58f0
p2667
I1415
sV\u6c37\u306e\u3088\u3046\u306b\u5fae\u7b11\u3093\u3067(\u30a8\u30c7\u30a3\u30c3\u30c8\u30fb\u30f4\u30a1\u30fc\u30b8\u30e7\u30f3)
p2668
I41
sV\u6c34\u5e95\u306e\u547b\u541f
p2669
I633
sV\u5996\u6c17
p2670
I25
sV\u6226\u6817\u306e\u546a\u3044
p2671
I10
sV\u6050\u6016\u306e\u63fa\u66f3
p2672
I125
ssV\u30ef\u30fc\u30eb\u30c9\u30c8\u30ea\u30ac\u30fc \u30aa\u30ea\u30b8\u30ca\u30eb\u30fb\u30b5\u30a6\u30f3\u30c9\u30c8\u30e9...
p2673
(dp2674
VGIRIGIRI (TV SIZE)
p2675
I120
sV\u96f7\u795e\u4e38
p2676
I10
sV\u8fd1\u754c\u6c11 (\u30cd\u30a4\u30d0\u30fc) \u306e\u529b
p2677
I3
sV\u30e9\u30f3\u30af\u6226-\u601d\u8003-
p2678
I11
sV\u697d\u3057\u3044\u65e5\u3005
p2679
I6
sV\u30a2\u30b7\u30bf\u30ce\u30d2\u30ab\u30ea (TV SIZE)
p2680
I57
sV\u30e9\u30f3\u30af\u6226-\u958b\u59cb-
p2681
I4
sV\u60d1\u661f\u56fd\u5bb6\u306e\u8ecc\u9053
p2682
I3
sV\u6fc0\u6226\u958b\u59cb
p2683
I7
sV\u57ce\u6238\u53f8\u4ee4\u306e\u601d\u60d1
p2684
I4
sV\u30ae\u30ea\u30ae\u30ea\u306e\u6226\u3044
p2685
I10
sV\u7389\u72db\u306e\u4f11\u65e5
p2686
I3
sV\u8fd1\u754c\u6c11 (\u30cd\u30a4\u30d0\u30fc) \u3068\u306e\u5bfe\u5cd9
p2687
I4
sV\u672a\u6765\u3078\u306e\u5149
p2688
I15
sV\u4e71\u661f\u56fd\u5bb6\u30a8\u30eb\u30ac\u30c6\u30b9
p2689
I5
sV\u5236\u5fa1\u4e0d\u80fd
p2690
I4
sV\u7389\u72db\u3067\u8fce\u3048\u308b\u671d
p2691
I4
sV\u30dc\u30fc\u30c0\u30fc\u4e0a\u5c64\u90e8
p2692
I6
sV\u8fd1\u754c\u6c11 (\u30cd\u30a4\u30d0\u30fc) \u306e\u9a5a\u7570
p2693
I2
sV\u30c9\u30ea\u30fc\u30e0\u30c8\u30ea\u30ac\u30fc (TV\u30b5\u30a4\u30ba ver.)
p2694
I16
sV\u5b64\u72ec
p2695
I30
sV100\u500d\u697d\u3057\u3080!
p2696
I9
sV\u30e9\u30f3\u30af\u6226-\u53cd\u6483-
p2697
I13
sV\u7d46
p2698
I17
sV\u30e9\u30f3\u30af\u6226-\u7406\u7531-
p2699
I8
sV\u5e73\u548c\u306a\u65e5\u3005
p2700
I15
sV\u795e\u306e\u56fd\u30a2\u30d5\u30c8\u30af\u30e9\u30c8\u30eb
p2701
I3
sV\u30c8\u30ea\u30ac\u30fc\u30aa\u30f3!!
p2702
I5
sV\u30dc\u30fc\u30c0\u30fc\u51fa\u6483
p2703
I14
sV\u30ef\u30fc\u30eb\u30c9\u30c8\u30ea\u30ac\u30fc \u30e1\u30a4\u30f3\u30c6\u30fc\u30de
p2704
I65
sV\u9e97\u3057\u304d\u7834\u58ca\u306e\u5973\u795e
p2705
I8
sV\u672a\u6765\u3078\u306e\u7d04\u675f
p2706
I28
sV\u30d6\u30e9\u30c3\u30af\u30c8\u30ea\u30ac\u30fc
p2707
I4
sV\u5b9f\u529b\u6d3e\u30a8\u30ea\u30fc\u30c8
p2708
I24
sV\u7389\u72db\u306e\u304a\u3084\u3064
p2709
I7
sV\u81ea\u5206\u3078\u306e\u554f\u3044
p2710
I5
sV\u30e9\u30f3\u30af\u6226-\u4e71\u6226-
p2711
I4
sV\u30c8\u30ea\u30aa\u30f3\u5175\u53ec\u559a
p2712
I5
sV\u30a8\u30eb\u30ac\u30c6\u30b9\u304b\u3089\u306e\u523a\u5ba2
p2713
I2
sV\u30b2\u30fc\u30c8\u767a\u751f-\u8fd1\u754c\u6c11 (\u30cd\u30a4\u30d0\u30fc) \u8972\u6483-
p2714
I6
ssV\u975e\u516c\u8a8d\u6226\u968a\u30a2\u30ad\u30d0\u30ec\u30f3\u30b8\u30e3\u30fc \u30b7\u30fc\u30ba\u30f3\u75db \u30aa...
p2715
(dp2716
V\u5dee\u3057\u8feb\u308b\u60e8\u798d (2M-14)
p2717
I0
sV\u7570\u7aef\u306a\u308b\u8005\u305f\u3061 (2M-16)
p2718
I0
sV\u660e\u65e5\u306f\u30a2\u30ad\u30d0\u306e\u98a8\u304c\u5439\u304f (\u30e1\u30ed\u30aa\u30b1)
p2719
I3
sV\u5f31\u3055\u3068\u6298\u308c\u3086\u304f\u5fc3 (M-13)
p2720
I1
sV\u7f6a\u6df1\u304d\u7570\u6226\u58eb\u305f\u3061 (2M-9)
p2721
I0
sV\u5927\u68ee\u529b\u4e5fSTEM-MIX\u3067\u7db4\u308b\u975e\u516c\u8a8d\u6226\u968a\u30a2\u30ad\u30d0\u30ec\u30f3\u30b8\u30e3\u30fc
p2722
I0
sV\u9ad8\u3076\u308b\u75db\u30a2\u30a4\u30ad\u30e3\u30c3\u30c1 (2M-18 Itata)
p2723
I0
sV\u75db\u3055\u306f\u5f37\u3055 \u75db! (2M-1)
p2724
I3
sV\u679c\u3066\u306a\u304d\u6b63\u7fa9\u3078\u306e\u601d\u3044 (2M-8)
p2725
I1
sV\u7834\u58ca\u3055\u308c\u3086\u304f\u73fe\u5b9f\u4e16\u754c (2M-12)
p2726
I0
sV\u30a2\u30ad\u30d0\u30ec\u30f3\u30b8\u30e3\u30fc \u30b7\u30fc\u30ba\u30f3\u75db! (TV\u30b5\u30a4\u30ba)
p2727
I9
sV\u653e\u305f\u308c\u305f\u60aa\u306e\u529b (2M-4)
p2728
I0
sV\u9ad8\u307e\u308b\u75db\u30a2\u30a4\u30ad\u30e3\u30c3\u30c1 (2M-18 Akiba)
p2729
I1
sV\u9a12\u304e\u305f\u3064\u60aa\u610f (2M-11)
p2730
I0
sV\u90aa\u307e\u305f\u308b\u5984\u60f3 (2M-5)
p2731
I0
sV\u30b9\u30fc\u30d1\u30fc\u6226\u968a\u2606\u975e\u516c\u8a8d\u5fdc\u63f4\u6b4c (\u30e1\u30ed\u30aa\u30b1)
p2732
I0
sV\u60bc\u3055\u3092\u77e5\u308b\u8005 (2M-19)
p2733
I0
sV\u6700\u72c2\u306e\u5730\u4e0b\u5e1d\u56fd (2M-7)
p2734
I0
sV\u30a2\u30ad\u30d0\u30ec\u30f3\u30b8\u30e3\u30fc \u30b7\u30fc\u30ba\u30f3\u75db! (\u30e1\u30ed\u30aa\u30b1)
p2735
I3
sV\u4f5c\u70ba\u6e80\u3061\u305f\u308b\u5996\u3057\u304d\u4e16\u754c (2M-15)
p2736
I1
sV\u5353\u8d8a\u3057\u305f\u5f37\u3055\u3068\u75db\u3055 (2M-3)
p2737
I6
sV\u731b\u308b\u75db\u3055\u3068\u5f37\u3055 (2M-2)
p2738
I2
sV\u9006\u5dfb\u304f\u7570\u5909 (2M-17)
p2739
I0
sV\u975e\u516c\u8a8d\u6226\u968a\u30a2\u30ad\u30d0\u30ec\u30f3\u30b8\u30e3\u30fc (\u30e1\u30ed\u30aa\u30b1)
p2740
I2
sV\u75db\u6483\u306e\u6226\u3044 (2M-13)
p2741
I0
sV\u624d\u6975\u307e\u308b\u60aa\u306e\u5c06\u8ecd (2M-6)
p2742
I0
sV\u75db\u3055\u306f\u5f37\u3055 \u611b\u306e\u30c6\u30fc\u30de (M-4)
p2743
I0
sV\u30b9\u30fc\u30d1\u30fc\u6226\u968a\u2606\u975e\u516c\u8a8d\u5fdc\u63f4\u6b4c (TV\u30b5\u30a4\u30ba)
p2744
I4
ssV\u30aa\u30ea\u30b8\u30ca\u30eb\u30a2\u30cb\u30e1\u300e\u30c8\u30ef\u30ce\u30af\u30aa\u30f3\u300f\u30aa\u30ea\u30b8\u30ca...
p2745
(dp2746
V\u771f\u5b9f
p2747
I2
sV\u3042\u305f\u305f\u304b\u306a\u573a\u6240
p2748
I2
sV\u72af\u4eba\u63a2\u3057
p2749
I3
sV\u6d41\u661f\u82b1:\u65f6\u7a7a\u56ed
p2750
I8
sV\u5b88\u308b\u305f\u3081\u306e\u6226\u3044
p2751
I47
sV\u30a4\u30d7\u30b7\u30ed\u30f3
p2752
I1
sV\u8fdc\u3044\u8bb0\u5fc6
p2753
I2
sV\u5b88\u308c\u306a\u304b\u3063\u305f\u60f3\u3044
p2754
I19
sV\u5f77\u5fa8
p2755
I6
sV\u30aa\u30fc\u30eb\u30c9\u30fc
p2756
I1
sV\u68a6\u5e7b\u306e\u653b\u9632
p2757
I1
sV\u30a2\u30c8\u30e9\u30af\u30bf\u30fc
p2758
I1
sV\u51b3\u7740\u306e\u65f6
p2759
I1
sV\u540c\u8c03
p2760
I1
sV\u30a2\u30eb\u30d0\u30e0\u306e\u4e2d\u306e\u5bb6\u65cf
p2761
I1
sV\u8feb\u308a\u304f\u308b\u5371\u673a
p2762
I1
sV\u53cb\u306e\u5b58\u5728
p2763
I1
sV\u60f3\u3044\u306e\u767a\u52a8
p2764
I2
sV\u5c01\u3058\u8fbc\u3081\u3089\u308c\u305f\u30ad\u30aa\u30af
p2765
I0
sV\u30a4\u30ce\u30c1\u30ce\u30a6\u30bf
p2766
I3
sV\u5e0c\u671b
p2767
I1
sV\u6da1\u5dfb\u304f\u4e0d\u5b89
p2768
I1
sV\u30d5\u30a1\u30f3\u30bf\u30b8\u30a2\u30e0\u30fb\u30ac\u30fc\u30c7\u30f3
p2769
I4
sV\u5343\u5e74\u3092\u99c6\u3051\u629c\u3051\u3066
p2770
I2
sV\u8ffd\u8ff9
p2771
I3
sV\u5909\u5316
p2772
I1
sV\u4ea4\u5dee\u3059\u308b\u60f3\u3044
p2773
I1
sV\u7ec8\u7109
p2774
I2
sV\u675f\u306e\u95f4\u306e\u5e78\u305b
p2775
I1
sV\u3042\u3075\u308c\u308b\u60f3\u3044
p2776
I0
sV\u4e88\u5146
p2777
I1
sV\u899a\u9192
p2778
I2
sV\u30af\u30fc\u30b9\u30c8\u30fc\u30b9
p2779
I2
sV\u6050\u6016
p2780
I23
sV\u79e9\u5e8f\u3068\u547d
p2781
I2
sV\u5343\u5e74\u306e\u60f3\u3044
p2782
I3
sV\u9b54\u6cd5\u306e\u6b4c\u58f0
p2783
I6
sV\u5c0f\u3055\u306a\u3044\u306e\u3061\u306e\u30a6\u30bf
p2784
I3
sV\u65f6\u6d25\u6d99\u306e\u90e8\u5c4b
p2785
I2
sV\u5343\u5e74\u6811
p2786
I6
sV\u66b4\u8d70\u3059\u308b\u60f3\u3044
p2787
I1
sV\u51b3\u6226
p2788
I2
sV\u30a4\u30f3\u30b5\u30cb\u30a2
p2789
I4
ssS'Sound of MONSTERZ'
p2790
(dp2791
V\u5bfe\u5cd9
p2792
I2
sV\u57f7\u884c
p2793
I0
sV\u8a66\u7df4
p2794
I0
sV\u56a5\u4e0b
p2795
I0
sV\u5ba3\u544a
p2796
I0
sV\u7fa4\u8846
p2797
I0
sV\u7591\u5ff5
p2798
I1
sV\u5948\u843d
p2799
I5
sV\u5d29\u843d
p2800
I2
sV\u82db\u9177
p2801
I3
sV\u885d\u7a81
p2802
I0
sV\u602a\u7269
p2803
I17
sV\u66b4\u767a
p2804
I0
sV\u8a18\u61b6
p2805
I3
ssV\u53f6\u95ee
p2806
(dp2807
V\u5f92\u7136
p2808
I3
sV\u5706
p2809
I9
sV\u6c89
p2810
I3
sV\u53f6\u95ee
p2811
I20
sV\u5371\u5883
p2812
I2
sV\u6d85\u76d8
p2813
I6
sV\u6218
p2814
I12
sV\u5207\u78cb
p2815
I30
sV\u56a3
p2816
I8
sV\u4ea1\u547d\u4e4b\u5f92
p2817
I8
sV\u4ee3\u4ef7
p2818
I4
sV\u65ad
p2819
I6
sV\u5251\u62d4\u5f29\u5f20
p2820
I46
sV\u50b2
p2821
I13
sV\u878d\u4e50
p2822
I8
sV\u60d8\u7136
p2823
I28
sV\u7ea0\u7f20
p2824
I5
sV\u9884\u544a
p2825
I14
sV\u65e0\u60e7
p2826
I6
sV\u5c81\u6708
p2827
I34
sV\u672c\u89c9
p2828
I6
sV\u8150
p2829
I6
sV\u60b2\u57ce
p2830
I6
sV\u8d74\u6c64\u8e48\u706b
p2831
I29
sV\u6b7b\u800c\u540e\u5df2
p2832
I17
sV\u4ec1\u4e49\u4e4b\u6218
p2833
I8
sV\u6cf0\u7136\u81ea\u82e5
p2834
I23
sV\u4e00\u4ee3\u5b97\u5e08\u2014\u8d30
p2835
I102
sV\u56f0
p2836
I5
sV\u4e00\u4ee3\u5b97\u5e08
p2837
I2181
sV\u5c0f\u5ff5\u5934
p2838
I142
ssV\u7cbe\u970a\u306e\u5b88\u308a\u4eba \u97f3\u697d\u7bc7 2
p2839
(dp2840
V\u91cd\u304d\u8863\u7f20\u3044\u3066
p2841
I6
sV\u5d07\u62dd
p2842
I1
sV\u7ae5\u3057\u304f\u306a\u308a\u3066 (Type A)
p2843
I2
sV\u81f3\u5de7\u306e\u67aa
p2844
I8
sV\u93d6\u6226\u306e\u3054\u3068\u304f
p2845
I5
sV\u3044\u3056\u3001\u3055\u3089\u3070
p2846
I23
sV\u5915\u51ea
p2847
I15
sV\u8b66\u949f
p2848
I3
sV\u30ca\u30fc\u30b8\u306e\u5457 (Short Ver.)
p2849
I8
sV\u76f8\u514b
p2850
I2
sV\u65f6\u96e8\u306e\u9877
p2851
I10
sV\u5fe7\u865e
p2852
I2
sV\u3046\u3064\u308d
p2853
I2
sV\u6e05\u6f84\u306a\u308a
p2854
I4
sV\u82cd\u5929\u306e\u9e70
p2855
I4
sV\u517b\u7236\u306e\u80cc
p2856
I12
sV\u3044\u306b\u3057\u3048\u306e\u6751
p2857
I50
sV\u5b9a\u9053\u306e\u30d0\u30eb\u30b5
p2858
I56
sV\u9b42\u3057\u305a\u3081
p2859
I5
sV\u722a\u306e\u9b54\u7269
p2860
I1
sV\u90aa\u601d\u3042\u308a\u3066
p2861
I3
sV\u4e00\u4eba\u901d\u304f\u541b\u3088
p2862
I3
sV\u7231\u3057\u3044\u4eba\u3078 (TV\u30b5\u30a4\u30ba)
p2863
I96
sV\u89c4\u7bc4\u3092\u751f\u304d\u3066
p2864
I6
sV\u7ae5\u3057\u304f\u306a\u308a\u3066 (Type B)
p2865
I16
sV\u8fd0\u547d\u306e\u523b
p2866
I1
sV\u9b54\u7269\u306e\u6c17\u914d
p2867
I2
sV\u53b3\u6d44\u306a\u308b\u8005\u8fbe
p2868
I9
sV\u8ffd\u3044\u706b
p2869
I1
ssV\u30ac\u30fc\u30eb\u30d5\u30ec\u30f3\u30c9(\u4eee) \u30aa\u30ea\u30b8\u30ca\u30eb\u30fb\u30b5\u30a6\u30f3\u30c9\u30c8...
p2870
(dp2871
V\u3069\u3046\u3059\u308c\u3070\u2026
p2872
I2
sV\u307e\u305f\u4f1a\u3048\u308b\uff1f
p2873
I5
sV\u3042\u308c\u3063\uff1f
p2874
I4
sV\u660e\u97f3\u306e\u30c6\u30fc\u30de
p2875
I2
sV\u5b66\u5712\u796d
p2876
I1
sV\u4e0b\u6821\u6642\u9593
p2877
I5
sV\u5973\u5b50\u4f1a\u306b\u3066
p2878
I3
sV\u6c17\u5206\u3092\u5909\u3048\u3066
p2879
I8
sV\u3048\u3048\u3063\uff1f
p2880
I8
sV\u30af\u30ed\u30a8\u306e\u30c6\u30fc\u30de
p2881
I5
sV\u660e\u65e5\u3082\u5b66\u6821\u306b\u884c\u3053\u3046
p2882
I37
sV\u5927\u5207\u306a\u6642\u9593
p2883
I5
sV\u5b66\u6821\u306b\u884c\u3053\u3046
p2884
I10
sV\u3042\u308f\u308f\uff01
p2885
I3
sV\u30d0\u30b9\u30bf\u30a4\u30e0
p2886
I3
sV\u3072\u3068\u3068\u304d
p2887
I5
sV\u601d\u3044\u51fa\u3057\u305f
p2888
I5
sV\u898b\u3064\u3051\u305f\u3088
p2889
I9
sV\u80cc\u3059\u3058\u3092\u4f38\u3070\u3057\u3066\u307f\u308b
p2890
I2
sV\u5fc3\u7f8e\u306e\u30c6\u30fc\u30de
p2891
I10
sV\u65b0\u4f53\u64cd
p2892
I12
sV\u30af\u30ea\u30b9\u30de\u30b9
p2893
I9
sV\u6587\u7dd2\u306e\u30c6\u30fc\u30de
p2894
I6
sV\u3069\u3046\u3057\u3088\u3046\u2026
p2895
I2
sV\u5bc4\u308a\u9053\u3057\u3088\u3046
p2896
I5
sV\u266a\u304a\u663c\u4f11\u307f\u266a
p2897
I54
sV\u524d\u3092\u5411\u3044\u3066
p2898
I4
sV\u30c0\u30a4\u30a8\u30c3\u30c8\u3057\u306a\u304d\u3083
p2899
I7
sV\u307e\u305f\u3001\u660e\u65e5
p2900
I8
sV\u3042\u308a\u304c\u3068\u3046
p2901
I11
sV\u304a\u6563\u6b69\u65e5\u548c
p2902
I34
sV\u6559\u982d\u5148\u751f
p2903
I4
sV\u266a\u7d42\u696d\u30d9\u30eb\u266a
p2904
I42
sV\u65e5\u66dc\u306e\u671d
p2905
I31
sV\u266a\u59cb\u696d\u30d9\u30eb\u266a
p2906
I33
sV\u3057\u307e\u3063\u305f\uff01
p2907
I5
ssVi~wish you were here~\u3042\u306a\u305f\u304c\u3053\u3053\u306b\u3044\u3066\u307b...
p2908
(dp2909
VPart 5\u201cCODA\u201d
p2910
I0
sVshort pieces 2 ~i~
p2911
I1
sVInterlude\u201c\u8ffd\u60f3\u201d - intro
p2912
I0
sVLunatic Trance ~\u9759\u304b\u306a\u308b\u7d76\u53eb~(\u30d3\u30c7\u30aa\u30b5\u30a4\u30ba)(\u30dc\u30fc\u30ca\u30b9\u30c8\u30e9\u30c3\u30af)
p2913
I0
sVshort pieces 1 ~yuji~
p2914
I0
sVshort pieces 3 ~aftermath~
p2915
I1
sVsuite i-Kenji Kawai edit-
p2916
I1
ssV\u30df\u30cb\u30d1\u30c8 \u673a\u52a8\u8b66\u5bdf\u30d1\u30c8\u30ec\u30a4\u30d0\u30fc \u30aa\u30ea\u30b8\u30ca\u30eb...
p2917
(dp2918
V\u4e09\u5341\u4e03\u7c8d\u673a\u52a8\u901f\u5c04\u91ce\u70ae\u30ab\u30ca?
p2919
I1
sVHOS!
p2920
I7
sV\u8feb\u308a\u6765\u308b\u7591\u60d1
p2921
I1
sV\u306a\u3093\u3068\u306a\u304f\u306f\u3058\u307e\u308b\u4e3b\u9898,\u518d\u3073
p2922
I2
sVTHE ROCKET PUNCH
p2923
I1
sV\u306a\u3093\u3068\u306a\u304f\u306f\u3058\u307e\u308b\u4e3b\u9898
p2924
I2
sV\u30cf\u30a4\u30d1\u30fc\u30c6\u30af\u30ce\u30ed\u30b8\u30fc
p2925
I1
sV\u6d99\u306e\u9ad8\u901f\u8247,\u51fa\u6e14\u3059
p2926
I6
sV\u4fb5\u5f7b\u5f3e\u9053\u5b66
p2927
I5
sV\u679c\u305f\u3057\u5408\u3044\u30ab\u30ca? - Karaoke
p2928
I1
sVEnding
p2929
I5
sV\u4f55\u51e6\u3078
p2930
I1
sV\u8fdb\u3081!\u30d1\u30c8\u30ec\u30a4\u30ac\u30fc
p2931
I3
sV\u6069\u8b90\u306e\u5f7c\u65b9\u306b
p2932
I4
sV\u3042\u3093\u305f\u306e\u3053\u3068\u3060\u3088\u304a\u5ba2\u3055\u3093
p2933
I3
sV\u8cdb\u3048\u3088!\u8b66\u89c6\u5e81\u8b66\u5907\u90e8\u6574\u5907\u7b2c\u4e8c\u4e2d\u961f
p2934
I2
sV\u679c\u305f\u3057\u5408\u3044\u30ab\u30ca?
p2935
I8
sV\u306a\u3093\u3068\u306a\u304f\u306f\u3058\u307e\u308b\u4e3b\u9898,\u4e09\u5ea6
p2936
I1
sV\u7be0\u539f\u4e5d\u516b\u5f0f\u6539\u8b66\u903b\u7528\u4eba\u578b\u6cdb\u7528\u673a\u68b0
p2937
I2
sV\u5fcd\u3073\u5bc4\u308b\u7591\u60d1
p2938
I1
ssV\u4e88\u8a00
p2939
(dp2940
Vback
p2941
I9
sV\u65b0\u305f\u306a\u4e88\u8a00
p2942
I11
sV\u4f55\u3082\u3067\u304d\u306a\u3044
p2943
I4
sV\u4e88\u8a00
p2944
I2
sV\u5343\u91cc\u773c\u306e\u6b7b
p2945
I3
sVrot
p2946
I3
sV\u68a6
p2947
I1
sVinside mirror
p2948
I19
sVgreen blood
p2949
I5
sVinfection
p2950
I4
sV\u6050\u6016\u65b0\u95fb\u306e\u8c1c
p2951
I131
sV\u623b\u3055\u308c\u305f\u65f6\u95f4
p2952
I0
sVsymptom
p2953
I3
sV\u9009\u3070\u308c\u305f\u8fd0\u547d
p2954
I6
sV\u6b6a\u3093\u3060\u65f6\u7a7a\u95f4
p2955
I1
sVradon
p2956
I8
sVgreen & red
p2957
I4
sV\u518d\u4f1a\u3068\u5730\u72f1
p2958
I2
sVsuture
p2959
I5
sV\u51b3\u65ad
p2960
I1
sV\u65e0\u5e38\u306e\u708e
p2961
I0
sVdissolve
p2962
I7
ssV\u5287\u5834\u7248 \u6a5f\u52d5\u6226\u58eb\u30ac\u30f3\u30c0\u30e0OO A wakening of ...
p2963
(dp2964
VFEEL THE QUANTUM BRAINWAVES
p2965
I4
sVWE ARE CELESTIAL BEING!! (\u6620\u753b\u300cCELESTIAL BEING\u300d\u3088\u308a) \u3010EXTRA TRACKS\u3011
p2966
I39
sVFATEFUL WAR
p2967
I9
sVCONFLICT (\u6620\u753b\u300cCELESTIAL BEING\u300d\u3088\u308a) \u3010EXTRA TRACKS\u3011
p2968
I7
sVTRANSIENT PEACE
p2969
I18
sVENIGMA
p2970
I3
sVELS~IMPREGNABILITY
p2971
I13
sVENVOY FROM JUPITER
p2972
I21
sVINSPECTORATE
p2973
I6
sVINNOVADE & INNOVATOR
p2974
I27
sVUNCLEAR
p2975
I2
sVHIGH TECHNOLOGY
p2976
I3
sVINTERFERENCE
p2977
I6
sVINVISIBLE TERROR
p2978
I4
sVHEART OF FELDT
p2979
I4
sVRIBBONS ALMARK
p2980
I4
sVRESOLUTION
p2981
I6
sVCHAOTIC WORLD
p2982
I3
sVTHE BATTLE OF STRANGERS
p2983
I34
sVFINAL MISSION~QUANTUM BURST
p2984
I578
sVUNEASINESS
p2985
I9
sVNEW HOPE ~00 QAN[T]
p2986
I21
sVBIZARRE
p2987
I3
sVCHANGE IN QUALITY
p2988
I3
sVMEMORY OF PLANET~SYMPATHY
p2989
I11
sVINDISTINCTNESS
p2990
I6
sVFUTURE(Aeolia\u2019s Dream)
p2991
I11
sVMARINA - \u5ddd\u4e95\u61b2\u6b21
p2992
I30
sV\u9589\u3056\u3055\u308c\u305f\u4e16\u754c (Screen Ver.) \u3010EXTRA TRACKS\u3011
p2993
I16
sVUNBROKEN
p2994
I13
ssV\u4e1c\u306e\u30a8\u30c7\u30f3 \u5267\u573a\u7248 \u30aa\u30ea\u30b8\u30ca\u30eb\u30fb\u30b5\u30a6\u30f3\u30c9\u30c8...
p2995
(dp2996
V\u53d7\u7406\u3055\u308c\u307e\u305b\u3093!
p2997
I3
sV\u6301\u3066\u308b\u8005\u306e\u4e49\u52a1
p2998
I2
sV\u9082\u9005
p2999
I4
sVafter laughter
p3000
I22
sV\u59ff\u306a\u304d\u7edf\u6cbb\u8005
p3001
I3
sVScrup&Build
p3002
I4
sV\u82cf\u308b\u8bb0\u5fc6
p3003
I5
sVfuture nova -album edit-
p3004
I25
sVA widow
p3005
I2
sV\u67de\u53f6\u306e
p3006
I2
sV\u601d\u3044\u51fa\u306e\u30b4\u30fc\u30eb\u30c7\u30f3\u30ea\u30f3\u30b0
p3007
I9
sV\u30a4\u30ea\u30e5\u30fc\u30b8\u30e7\u30f3\u3067\u3059!
p3008
I1
sVMisunderstanding
p3009
I2
sVInvisible
p3010
I67
sV\u6301\u305f\u3056\u308b\u8005\u8fbe\u306e\u5486\u54ee
p3011
I3
sVTactics
p3012
I3
sV\u671d\u972d
p3013
I9
sV\u91ce\u306b\u653e\u3064
p3014
I1
sV\u540d\u3082\u306a\u304d\u8005\u305f\u3061
p3015
I3
sVNo Way!
p3016
I2
sV\u30df\u30ab\u30a8\u30eb\u304b\u30d9\u30ea\u30a2\u30eb
p3017
I37
sVNo pain,No gain
p3018
I7
sVlight prayer
p3019
I30
sV\u30d7\u30ec\u30fc\u30e4\u30fc\u8fbe\u306e\u82e6\u60a9
p3020
I1
sVNo Vision
p3021
I2
sV\u6155\u60c5
p3022
I13
sVFire Gun
p3023
I2
ssV\u300e\u4fee\u7f57\u96ea\u59eb\u300f\u30aa\u30ea\u30b8\u30ca\u30eb\u30fb\u30b5\u30a6\u30f3\u30c9\u30c8\u30e9\u30c3\u30af
p3024
(dp3025
V\u6bcd\u306e\u9057\u8a00
p3026
I1
sV\u6bcd\u306e\u8bb0\u5fc6
p3027
I0
sV\u5e8f\u66f2
p3028
I5
sV\u9ec4\u67a2\u5398\u8bb0\u5ff5\u8bb2\u5802\u306e\u89c1\u53d6\u308a\u56f3
p3029
I0
sV\u5f69
p3030
I0
sV\u6b7b\u95d81
p3031
I0
sV\u6b7b\u95d82
p3032
I1
sV\u7a7a\u6687
p3033
I1
sV\u7cbe\u970a\u306e\u3055\u3055\u3084\u304d
p3034
I0
sV\u8fd0\u547d
p3035
I0
sV\u65b0\u305f\u306a\u8a93\u3044
p3036
I0
sV\u771f\u8987\u7460\u5c9b\u306e\u8bb0\u5fc6
p3037
I1
sV\u96ea\u3068\u96861
p3038
I1
sV\u5efa\u5fa1\u96f7
p3039
I2
sV\u96ea\u3068\u96862
p3040
I0
sV\u7d76\u671b
p3041
I2
sV\u5e0c\u671b
p3042
I1
ssV\u30b8\u30e7\u30fc\u30ab\u30fc\u30fb\u30b2\u30fc\u30e0 \u30aa\u30ea\u30b8\u30ca\u30eb\u30b5\u30a6\u30f3\u30c9\u30c8\u30e9...
p3043
(dp3044
V\u8a6e\u7d22
p3045
I42
sV\u9759\u5bc2
p3046
I45
sV\u5371\u96e3
p3047
I10
sV\u61f7\u7591
p3048
I37
sV\u4f73\u5c40
p3049
I54
sV\u60b2\u98a8
p3050
I39
ssV\u3089\u3093\u307e1/2 \u300c\u4e2d\u56fd\u5bdd\u5d11\u5d19\u5927\u6c7a\u6226! \u639f\u3084\u3076\u308a\u306e...
p3051
(dp3052
V\u3042\u304b\u306d\u596a\u9084\u653b\u9632\u6226\u30fb\u4e00
p3053
I11
sV\u6c7a\u6226!\u7bb8\u306e\u58c1
p3054
I47
sV\u5927\u6df7\u4e71!\u5168\u54e1\u96c6\u5408
p3055
I23
sV\u7b2c\u4e00\u697c\u95a3\u30fb\u98db\u8eca\u9580\u5929
p3056
I31
sV\u30a4\u30c3\u30c4\u30fb\u30e9\u30f4
p3057
I5
sV\u516b\u5b9d\u6589\u306e\u6614\u8a71
p3058
I36
sV\u30e9\u30a4\u30c1\u3068\u30b8\u30e3\u30b9\u30df\u30f3
p3059
I17
sV\u3042\u304b\u306d\u596a\u9084\u653b\u9632\u6226\u30fb\u4e8c
p3060
I158
sV\u30ad\u30ea\u30f3\u306e\u6c7a\u610f
p3061
I35
sV\u30ad\u30ea\u30f3\u53c2\u4e0a\u3059
p3062
I153
sV\u7b2c\u4e09\u697c\u95a3\u30fb\u30a6\u30fc
p3063
I75
sV\u7b2c\u56db\u697c\u95a3\u30fb\u30e2\u30f3\u30ed\u30f3
p3064
I15
sV\u7d42\u66f2
p3065
I12
sV\u5bdd\u5d11\u5d19\u3078\u306e\u65c5\u8def
p3066
I339
sV\u5927\u5186\u56e3
p3067
I420
sV\u7b2c\u4e94\u697c\u95a3\u30fb\u6075\u6bd4\u5929
p3068
I111
sV\u7b2c\u4e8c\u697c\u95a3\u30fb\u5927\u9ed2\u661f\u3068\u5927\u767d\u661f
p3069
I9
sV\u5e8f\u66f2
p3070
I28
ssV\u30c9\u30ea\u30fc\u30e0\u30cf\u30f3\u30bf\u30fc\u9e97\u5922 SPECIAL \u30aa\u30ea\u30b8\u30ca\u30eb\u30fb...
p3071
(dp3072
VLast Period
p3073
I1
sVRegret of ancestor
p3074
I1
sV\u8def\u5730\u88cf\u306e\u30b7\u30e3\u30f3\u30bd\u30f3
p3075
I1
sVSpring haze
p3076
I3
sV\u9e97\u5922\u304b\u3089\u306e\u30e1\u30c3\u30bb\u30fc\u30b8 (1)
p3077
I1
sV\u3084\u3055\u3057\u3044\u604b\u6ce5\u68d2
p3078
I1
sV\u5922\u306eCARNIVAL
p3079
I2
sVBoy -\u30dc\u30fc\u30a4-
p3080
I2
sV\u62b1\u304d\u3057\u3081\u3066\u3082\u3046\u4e00\u5ea6
p3081
I1
sV\u5996\u7cbe\u30b7\u30f3\u30c9\u30ed\u30fc\u30e0
p3082
I2
sV\u6708\u306f\u898b\u3066\u3044\u305f -Crescent\u306e\u5c01\u5370-
p3083
I1
sV\u4f1d\u8aac\u306e\u7d42\u7ae0
p3084
I1
sV\u5186\u5149\u306e\u30c6\u30fc\u30de
p3085
I1
sVQuick as lightning!
p3086
I1
sV\u60b2\u3057\u304d\u4eba\u9020\u4eba\u9593
p3087
I8
sVTight Beat\u3067\u547c\u3073\u51fa\u3057\u3066
p3088
I5
sV\u9752\u3044\u5192\u967a\u8005 -THE DREAM GARDIAN REM-
p3089
I1
sV\u9e97\u5922\u304b\u3089\u306e\u30e1\u30c3\u30bb\u30fc\u30b8 (2)
p3090
I1
sV\u767d\u62cd\u5b50\u306e\u7b1b
p3091
I2
sVNight walker
p3092
I1
sV\u30c9\u30ea\u30fc\u30e0\u30cf\u30f3\u30bf\u30fc\u9e97\u5922
p3093
I3
sV\u9b54\u9053\u58eb\u30e1\u30d5\u30a3\u30b9\u30c8\u30fb\u30d5\u30a7\u30ec\u30b9
p3094
I1
sV\u9e97\u5922\u306e\u30c6\u30fc\u30de
p3095
I1
sVDREAM GARDIAN
p3096
I1
sV\u83ef\u9e97\u306a\u308b\u8ffd\u8de1
p3097
I1
ssV\u30a6\u30eb\u30c8\u30e9\u30de\u30f3\u30cd\u30af\u30b5\u30b9 \u30aa\u30ea\u30b8\u30ca\u30eb\u30b5\u30a6\u30f3\u30c9\u30c8...
p3098
(dp3099
V\u30b9\u30da\u30fc\u30b9\u30d3\u30fc\u30b9\u30c8~Invasion~
p3100
I27
sVTLT(\u30c6\u30a3\u30eb\u30c8)~Secret Base~
p3101
I16
sV\u6226\u58eb\u306e\u5bbf\u547d
p3102
I132
sV\u5b64\u95e8\u306e\u30c6\u30fc\u30de
p3103
I334
sV\u4ef2\u95f4\u305f\u3061
p3104
I31
sV\u30cd\u30af\u30b5\u30b9~Descent~
p3105
I14
sV\u30cd\u30af\u30b5\u30b9~Dash~
p3106
I176
sV\u30ca\u30a4\u30c8\u30ec\u30a4\u30c0\u30fc~Attack~
p3107
I97
sV\u59eb\u77e2\u306e\u30c6\u30fc\u30de
p3108
I73
sV\u96f7\u9e23
p3109
I14
sV\u30a2\u30a4\u30ad\u30e3\u30c3\u30c1
p3110
I23
sV\u30b9\u30da\u30fc\u30b9\u30d3\u30fc\u30b9\u30c8~Forming~
p3111
I26
sV\u4e8b\u4ef6\u767a\u751f
p3112
I27
sV\u5f20\u308a\u8bd8\u3081\u305f\u7a7a\u6c17
p3113
I13
sVTLT(\u30c6\u30a3\u30eb\u30c8)~Mission~
p3114
I8
sV\u30ca\u30a4\u30c8\u30ec\u30a4\u30c0\u30fc~Scramble~
p3115
I256
sV\u30ca\u30a4\u30c8\u30ec\u30a4\u30c0\u30fc~Patrol~
p3116
I22
sV\u30ec\u30af\u30a4\u30a8\u30e0
p3117
I24
sV\u30b9\u30da\u30fc\u30b9\u30d3\u30fc\u30b9\u30c8~Awakening~
p3118
I14
sV\u6d88\u305b\u306a\u3044\u8fc7\u53bb
p3119
I6
sV\u51ea\u306e\u30c6\u30fc\u30de
p3120
I15
sV\u30cd\u30af\u30b5\u30b9~Heroic~
p3121
I718
sV\u9b54\u4eba\u964d\u8bde
p3122
I72
sV\u30cd\u30af\u30b5\u30b9~Appearance~
p3123
I19
sV\u60ca\u6115
p3124
I23
sV\u51b3\u6226\u306e\u65f6
p3125
I143
sV\u30b9\u30da\u30fc\u30b9\u30d3\u30fc\u30b9\u30c8~Rage~
p3126
I25
sV\u30cf\u30fc\u30c8\u30fb\u30d6\u30ec\u30a4\u30af
p3127
I25
sV\u8c1c\u306e\u4eba\u7269
p3128
I9
sV\u30e1\u30a4\u30f3\u30fb\u30bf\u30a4\u30c8\u30eb
p3129
I42
sV\u30ea\u30b3\u306e\u30c6\u30fc\u30de
p3130
I103
sV\u4fb5\u8680
p3131
I5
sV\u6697\u3092\u5207\u308a\u88c2\u304f\u60b2\u9e23
p3132
I14
sV\u5b9f\u8df5\u306e\u6050\u6016
p3133
I7
sV\u30b9\u30da\u30fc\u30b9\u30d3\u30fc\u30b9\u30c8~Stampede~
p3134
I17
sVFight The Future~\u30a6\u30eb\u30c8\u30e9\u30de\u30f3\u30cd\u30af\u30b5\u30b9\u306e\u30c6\u30fc\u30de~
p3135
I115
sV\u30b9\u30da\u30fc\u30b9\u30d3\u30fc\u30b9\u30c8~Crash~
p3136
I9
sV\u30cd\u30af\u30b5\u30b9~Encounter~
p3137
I273
sV\u30b9\u30da\u30fc\u30b9\u30d3\u30fc\u30b9\u30c8~Stalked~
p3138
I5
sV\u30ca\u30a4\u30c8\u30ec\u30a4\u30c0\u30fc~Battle~
p3139
I79
sV\u7d20\u654c\u884c\u52a8
p3140
I8
sV\u30cd\u30af\u30b5\u30b9~Final Fight~
p3141
I171
sV\u30b9\u30da\u30fc\u30b9\u30d3\u30fc\u30b9\u30c8~Ferocious~
p3142
I12
sV\u30cd\u30af\u30b5\u30b9~Disappear~
p3143
I43
sVTLT(\u30c6\u30a3\u30eb\u30c8)~Huge organization~
p3144
I24
sV\u30e1\u30e2\u30ea\u30fc\u30dd\u30ea\u30b9
p3145
I4
sV\u30b9\u30da\u30fc\u30b9\u30d3\u30fc\u30b9\u30c8~Charge~
p3146
I27
ssS'K-PLEASURE Kenji Kawai Best of Movies'
p3147
(dp3148
VSTRAY DOG-Epilogue-
p3149
I0
sV\u30a8\u30f3\u30c7\u30a3\u30f3\u30b0\u3001\u518d\u3073
p3150
I1
sV\u5bbf\u547d
p3151
I2
sV\u5c11\u5973\u306e\u30c6\u30fc\u30de
p3152
I2
sV\u9053\u884c\u304d\uff5e\u4e00\u8f2a\u306e\u82b1
p3153
I0
sV\u907a\u4f1d\u5b50
p3154
I1
sV\u9053\u884c\u306e\u30c6\u30fc\u30de\u80e1\u8776\u306e\u5922\u3088\u308a
p3155
I0
sV\u30a8\u30f3\u30c7\u30a3\u30f3\u30b0\u30c6\u30fc\u30de
p3156
I1
sV\u30aa\u30fc\u30d7\u30cb\u30f3\u30b0\u30c6\u30fc\u30de
p3157
I2
sVChaos
p3158
I1
sVTheme of PATLABOR 2
p3159
I1
sV\u5929\u4f7f\u306e\u30ad\u30b9
p3160
I2
sV\u8b21III-Reincarnation
p3161
I3
sV\u30d8\u30f4\u30a3\u30fc \u30a2\u30fc\u30de\u30fc
p3162
I4
sVSTAND UP
p3163
I1
sV\u30a8\u30f3\u30c7\u30a3\u30f3\u30b0\u30bf\u30a4\u30c8\u30eb
p3164
I1
sVFloating Museum
p3165
I3
sVHallucination
p3166
I0
sV\u967d\u708e
p3167
I2
sV\u6c38\u9060\u306e\u5225\u308c
p3168
I2
sV\u671d\u967d\u306e\u4e2d\u3078
p3169
I3
ssS'Sound of L change the WorLd'
p3170
(dp3171
V\u65e0\u57a2
p3172
I5
sV\u5206\u6790
p3173
I1
sV\u767a\u7aef
p3174
I3
sV\u8c0b\u7565
p3175
I2
sV\u7b11\u58f0
p3176
I17
sV\u72a0\u7272
p3177
I4
sV\u64b9\u4e71
p3178
I2
sV\u4f11\u606f
p3179
I8
sV\u7591\u95ee
p3180
I2
sV\u5bfe\u5cd9
p3181
I1
sV\u6fc0\u8d70
p3182
I5
sV\u5b8c\u6210
p3183
I5
sV\u9003\u8d70
p3184
I9
sV\u611f\u5fdc
p3185
I7
sV\u89e3\u8aad
p3186
I3
sV\u6551\u51fa
p3187
I3
sV\u60b2\u75db
p3188
I1
sVNear
p3189
I73
sV\u899a\u609f
p3190
I3
sV\u51b3\u610f
p3191
I7
sVL.Lawliet
p3192
I39
sV\u590d\u8b90
p3193
I1
sV\u5b64\u9ad8
p3194
I2
sV\u63a8\u7406
p3195
I4
ssV\u3070\u3089\u304b\u3082\u3093 \u30aa\u30ea\u30b8\u30ca\u30eb\u30fb\u30b5\u30a6\u30f3\u30c9\u30c8\u30e9\u30c3\u30af
p3196
(dp3197
V\u4eba\u306f\u4eba\u304b\u3089\u5b66\u3076\u3082\u306e
p3198
I17
sV\u30ae\u30e3\u30c3\u30d7\u3068\u52d8\u9055\u3044
p3199
I4
sV\u5df1\u3068\u306e\u95d8\u3044
p3200
I4
sV\u6c17\u304c\u4ed8\u3051\u3070\u5206\u304b\u308b\u60f3\u3044
p3201
I8
sV\u30bf\u30de\u306e\u30de\u30f3\u30ac\u611b
p3202
I13
sV\u5b50\u4f9b\u3068\u306e\u4ea4\u6d41
p3203
I18
sV\u5fc3\u306e\u504f\u308a
p3204
I9
sV\u8ca0\u3051\u308b\u3082\u3093\u304b!
p3205
I8
sV\u6f01\u5e2b\u3001\u305d\u306e\u751f\u304d\u69d8
p3206
I7
sV\u6c17\u8feb\u3067\u8d8a\u3048\u308d!
p3207
I3
sV\u30c0\u30c3\u3055\u3044\u5148\u751f
p3208
I84
sV\u81ea\u7136\u306e\u8c4a\u304b\u3055\u3092\u565b\u307f\u3057\u3081\u3066
p3209
I42
sV\u53ef\u611b\u3044\u306a\u3041
p3210
I26
sV\u5cf6\u4eba\u3068\u306e\u4ea4\u6d41
p3211
I14
sV\u4eba\u61d0\u3063\u3053\u3044\u5b50
p3212
I16
sV\u65b0\u3057\u3044\u4e00\u65e5
p3213
I11
sV\u66f8\u306e\u9583\u304d
p3214
I7
sV\u6094\u3084\u3080\u6c17\u6301\u3061
p3215
I14
sV\u5171\u611f\u3068\u611f\u9298
p3216
I30
sV\u8272\u7537\u306b\u4f53\u529b\u306f\u7121\u3044?
p3217
I10
sV\u66f8\u9053\u5bb6\u306e\u6210\u9577
p3218
I79
sV\u306a\u308b\u306e\u5ac9\u59ac!?
p3219
I3
sVNaru no Shitto!?
p3220
I8
sV\u4eba\u306f\u89e6\u308c\u5408\u3044\u3001\u5927\u4eba\u306b\u306a\u3063\u3066\u884c\u304f
p3221
I10
sV\u3054\u3081\u3093\u306a\u3055\u3044\u3063!
p3222
I32
sV\u5cf6\u306e\u3053\u3069\u3082\u3001\u306a\u308b
p3223
I102
sV\u5cf6\u306e\u4eba\u3005
p3224
I35
sV\u77e5\u3089\u306a\u3044\u3063\u3066\u6016\u3044
p3225
I6
sV\u6642\u306e\u6d41\u308c
p3226
I36
sV\u9633\u6c17\u306a\u5cf6\u306e\u3053\u3069\u3082\u305f\u3061
p3227
I30
sV\u6bcd\u306e\u5f37\u304d\u60f3\u3044!
p3228
I6
sV\u53cd\u7701\u3068\u56f0\u60d1
p3229
I3
sV\u30bf\u30de\u306e\u5fc3\u306e\u4e2d
p3230
I14
sV\u632f\u308a\u56de\u3055\u308c\u308b\u65e5\u3005
p3231
I3
sV\u81ea\u7136\u3078\u306e\u611f\u94ed
p3232
I47
sV\u5cf6\u306e\u5b50\u306f\u3044\u305f\u305a\u3089\u597d\u304d
p3233
I12
sV\u5b50\u4f9b\u306e\u52d8\u9055\u3044
p3234
I10
sV\u8997\u304b\u308c\u3061\u3083\u3063\u305f
p3235
I4
ssV\u30d5\u30b8\u30c6\u30ec\u30d3\u7cfb\u30c9\u30e9\u30de\u300c\u3059\u3079\u3066\u304cF\u306b\u306a\u308b\u300d\u30aa\u30ea...
p3236
(dp3237
VFabric
p3238
I7
sVFang
p3239
I7
sVFaint
p3240
I22
sVF-hard ver.
p3241
I13
sVFiction
p3242
I6
sVFavorite
p3243
I2
sVField
p3244
I4
sVFog
p3245
I2
sVFancy
p3246
I2
sVFace-detective ver.
p3247
I2
sVFolder
p3248
I3
sVFilament
p3249
I21
sVFloppy
p3250
I6
sVF-ballad ver.1
p3251
I10
sVF-ballad ver.2
p3252
I11
sVFree
p3253
I5
sVFind-ballad ver.
p3254
I2
sVFiend
p3255
I6
sVF
p3256
I107
sVFace-love ver.
p3257
I5
sVFlow
p3258
I7
sVFace
p3259
I2
sVFilter
p3260
I2
sVFlame
p3261
I29
sVFact
p3262
I25
sVFind-brain ver.
p3263
I13
sVFocus
p3264
I17
sVF-sentimental ver.
p3265
I4
sVFreeze
p3266
I4
sVFake
p3267
I7
sVFear
p3268
I5
sVFind
p3269
I21
sVFill
p3270
I6
ssVNHK\u571f\u66dc\u30c9\u30e9\u30de\u201c\u9244\u306e\u9aa8\u201d\u30aa\u30ea\u30b8\u30ca\u30eb\u30b5\u30a6\u30f3\u30c9...
p3271
(dp3272
V\u6f6e\u6d41
p3273
I1
sV\u840c
p3274
I6
sV\u9244\u306e\u5938\u308a
p3275
I0
sVSurvive
p3276
I0
sV\u5165\u672d\u5f00\u59cb
p3277
I0
sV\u5730\u9762\u306e\u4e0b
p3278
I0
sV\u6226\u53cb\u306e\u6b7b
p3279
I0
sV\u3064\u306a\u3050\u7eca
p3280
I0
sV\u7591\u5fc3
p3281
I0
sVCHASE
p3282
I0
sVshield machine
p3283
I0
sV\u5bfe\u5cd9\u3059\u308b\u7537\u305f\u3061
p3284
I2
sV\u75be\u8d70
p3285
I0
sV\u9244\u306e\u9aa8
p3286
I1
sV\u602a\u6587\u4e66
p3287
I0
sV\u9759\u304b\u306a\u70ed
p3288
I0
sV\u5e73\u592a
p3289
I2
sV\u5e73\u592a\u3068\u840c
p3290
I1
sV\u307e\u306a\u3056\u3057
p3291
I0
sV\u672a\u6765\u3078
p3292
I0
sV\u4e1a\u754c\u518d\u7f16
p3293
I0
sV\u30d5\u30a3\u30af\u30b5\u30fc
p3294
I1
ssV\u5287\u5834\u7248 Fate/stay night UNLIMITED BLADE W...
p3295
(dp3296
VUragiri no Kaidou
p3297
I5
sVKaeru Beki Basho
p3298
I33
sVSatsumei Kibou!
p3299
I6
sVTenbin no Mamorite
p3300
I9
sVKizamareta Omoi
p3301
I3
sV\u7d50\u3070\u308c\u308b\u4e16\u754c
p3302
I17
sVMouka Houkou
p3303
I10
sVSemari Kuru Yami
p3304
I8
sVEien no Kaikou
p3305
I4
sVSoukokusuru Tamashii
p3306
I5
sVRisou no Hate
p3307
I5
sVcounterattack
p3308
I4
sVEmiya -Kenji Kawai ver.2-
p3309
I859
sV\u6c7a\u6226
p3310
I18
sVSenketsu Shinden
p3311
I7
sVVoice ~\u8fbf\u308a\u3064\u304f\u5834\u6240~ (movie version)
p3312
I13
sVPrologue
p3313
I6
sVHametsu no Senritsu
p3314
I6
sVUnmei no Yoru -UNLIMITED BLADE WORKS-
p3315
I56
sVsacrifice
p3316
I3
sV\u4e8c\u4eba\u306e\u9f13\u52d5
p3317
I3
sVeternity -last episode-
p3318
I7
sVMajo no Sasoi
p3319
I5
ssV\u3059\u3079\u3066\u304cF\u306b\u306a\u308b THE PERFECT INSIDER ORIG...
p3320
(dp3321
V\u30aa\u30fc\u30c7\u30a3\u30aa\u30c9\u30e9\u30de\u300c\u56db\u5b63\u300d#6
p3322
I6
sV\u30aa\u30fc\u30c7\u30a3\u30aa\u30c9\u30e9\u30de\u300c\u56db\u5b63\u300d#4
p3323
I5
sV\u30aa\u30fc\u30c7\u30a3\u30aa\u30c9\u30e9\u30de\u300c\u56db\u5b63\u300d#5
p3324
I4
sV\u30aa\u30fc\u30c7\u30a3\u30aa\u30c9\u30e9\u30de\u300c\u56db\u5b63\u300d#2
p3325
I6
sV\u30aa\u30fc\u30c7\u30a3\u30aa\u30c9\u30e9\u30de\u300c\u56db\u5b63\u300d#3
p3326
I4
sV\u30aa\u30fc\u30c7\u30a3\u30aa\u30c9\u30e9\u30de\u300c\u56db\u5b63\u300d#1
p3327
I36
sVwonderFully
p3328
I15
sVhellFire
p3329
I58
sV(non)Fiction
p3330
I10
sVinFerring
p3331
I62
sV\u30ca\u30ca\u30d2\u30c4\u30b8 (Anime Size)
p3332
I85
sVFaint heart
p3333
I40
sVaFfliction
p3334
I31
sV\u30aa\u30fc\u30c7\u30a3\u30aa\u30c9\u30e9\u30de\u300c\u56db\u5b63\u300dextra
p3335
I4
sVpeaceFul sailing
p3336
I25
sVFragment (Vl ver.)
p3337
I17
sVFeel uneasy
p3338
I9
sVconFronting
p3339
I34
sVwhat is F?
p3340
I28
sVconFlict
p3341
I16
sVtalking (Anime Size)
p3342
I60
sVthe core oF a matter
p3343
I34
sVbeautiFul sorrow
p3344
I139
sVbride oF death
p3345
I62
ssS'Death note'
p3346
(dp3347
VDisturbance
p3348
I10
sVA Reality
p3349
I5
sVImpatience
p3350
I3
sVGo Into Battle
p3351
I8
sVGive The Right Answer
p3352
I5
sVSuspicion
p3353
I2
sVAstonishment
p3354
I14
sVA Heart Attack
p3355
I42
sVMemo Paper
p3356
I2
sVIn The Heart
p3357
I12
sVA Sacrifice
p3358
I3
sVBonus Track
p3359
I16
sVRealize The Limitations
p3360
I2
sVAn Image
p3361
I4
sVBe Cute
p3362
I16
sVReasoning Powers
p3363
I2
sVCarry Out A Plan
p3364
I8
sVAccording To Plan
p3365
I2
sVA Challenge
p3366
I12
sVThe Test
p3367
I4
sVAn Observer
p3368
I2
sVLogic
p3369
I5
sVMisunderstand
p3370
I5
sVA Dispute
p3371
I7
sVConfused
p3372
I4
sVA Shadow
p3373
I8
sVMake A Noise In The World
p3374
I10
ssVBLUE SEED \u97f3\u697d\u7f16 Vol.3
p3375
(dp3376
V\u30d5\u30a7\u30b9\u30c6\u30a3\u30f4\u30a1\u30eb\u30fb\u30ca\u30a4\u30c8
p3377
I0
sV\u8c0b\u7565
p3378
I5
sV\u7ea2\u53f6\u306e\u51b3\u5fc3~\u8fd0\u547d\u3092\u4e57\u308a\u8d8a\u3048\u3066
p3379
I2
sV\u30de\u30c4\u30ea\u30a6\u30bf(\u7ea2\u53f6\u30f4\u30a1\u30fc\u30b8\u30e7\u30f3)
p3380
I91
sV\u30b9\u30b5\u30ce\u30aa\u30fb\u30aa\u30fc\u30fb\u30ce\u30fc!
p3381
I7
sV\u53e4\u306e\u8bb0\u5fc6
p3382
I2
sVX-FILE\u56fd\u6728\u7530\u306e\u3070\u3084\u3044
p3383
I10
sV\u30b3\u30df\u30c3\u30af\u30fb\u30e0\u30fc\u30c9\u30fb\u30a4\u30f3\u201c\u30d6\u30eb\u30fc\u30b7\u30fc\u30c9\u201d
p3384
I2
sV\u30bf\u30c3\u30c1\u30fb\u30a2\u30f3\u30c9\u30fb\u30b4\u30fc!!(TV\u30b5\u30a4\u30ba)
p3385
I3
sV\u5fcd\u3073\u5bc4\u308b\u5f71
p3386
I1
sV\u9006\u8ee2!\u685c,\u53ea\u4eca\u53c2\u4e0a
p3387
I6
sV\u4eea\u5f0f
p3388
I4
sV\u5c4a\u304b\u306c\u60f3\u3044
p3389
I1
sV\u8fdc\u304d\u547c\u3073\u58f0\u306e\u5f7c\u65b9\u3078
p3390
I9
sV\u30ab\u30eb\u30ca\u30f4\u30a1\u30eb\u30fb\u30d0\u30d9\u30eb(TV\u30b5\u30a4\u30ba)
p3391
I5
sV\u30b6\u30fb\u30c7\u30a4\u30fb\u30aa\u30d6\u30fb\u30b9\u30ae\u30b7\u30bf
p3392
I0
sV\u201cOMAKE THEATER\u201d\u30aa\u30fc\u30d7\u30cb\u30f3\u30b0\u30c6\u30fc\u30de
p3393
I1
sV\u7686\u65e2\u65e5\u98df~\u8fd0\u547d\u306e\u65f6
p3394
I2
sV\u56fd\u6728\u7530\u3069\u3063\u307d\u30fc\u3093
p3395
I1
sV\u30de\u30c4\u30ea\u30a6\u30bf
p3396
I58
sV\u6681\u306e\u51fa\u52a8
p3397
I0
sV\u9752\u304d\u9b42(\u30f4\u30a1\u30fc\u30b8\u30e7\u30f32)
p3398
I3
sV\u30de\u30c4\u30ea\u30a6\u30bf(\u30a4\u30f3\u30b9\u30c8\u30a5\u30eb\u30e1\u30f3\u30bf\u30eb)
p3399
I109
sV\u9996\u90fd\u306f\u71c3\u3048\u3066\u3044\u308b\u304b
p3400
I2
sV\u3054\u3044\u3093\u304d\u3087Go Go!
p3401
I1
sV\u8f89\u304f\u9b42
p3402
I1
sV\u30b8\u30e3\u30b8\u30e3\u30f3\u3068\u30de\u30fc\u30b8\u30e3\u30f3!
p3403
I0
sV\u8fdb\u3081!\u52a8\u753b\u5c11\u5973
p3404
I1
sV\u767d\u3044\u65f6\u95f4
p3405
I0
sV\u4f18\u3057\u3055\u306b\u5305\u307e\u308c\u3066\u2026
p3406
I4
ssVBLUE SEED \u97f3\u697d\u7f16 Vol.2
p3407
(dp3408
V\u30a2\u30f3\u30d3\u30ea\u30fc\u30d0\u30dc\u30fc!\u30a2\u30e1\u30ea\u30ab\u5e30\u308a\u306e\u9634\u9633\u5e08
p3409
I0
sV\u4e88\u611f
p3410
I1
sV\u6211\u304c\u7956\u56fd\u306e\u5927\u5730\u306f\u2026\u2026
p3411
I1
sV\u30b9\u30b5\u30ce\u30aa\u8bde\u751f
p3412
I0
sV\u30a2\u30a4\u30ad\u30e3\u30c3\u30c1\u30e3\u30fc
p3413
I6
sV\u7834\u706d\u306e\u59cb\u307e\u308a
p3414
I5
sV\u82e6\u3044\u80dc\u5229
p3415
I1
sV\u60aa\u9b3c\u306e\u53ec\u5524
p3416
I3
sV\u661f\u3092\u98de\u3073\u8d8a\u3048\u3066(\u7ea2\u53f6&\u685c\u30f4\u30a1\u30fc\u30b8\u30e7\u30f3)
p3417
I0
sV\u5723\u6bcd\u305f\u3061\u306e\u6226\u573a
p3418
I0
sV\u8c01\u304c\u305f\u3081\u306b\u6226\u3046
p3419
I0
sV\u7ea2\u53f6,\u304c\u3093\u3070\u308a\u307e\u3059!
p3420
I1
sV\u56fd\u571f\u7ba1\u7406\u5ba4\u306e\u635c\u67fb
p3421
I0
sV\u30dc\u30fc\u30c0\u30fc\u30ec\u30b9\u30fb\u30e6\u30cb\u30f4\u30a1\u30fc\u30b9
p3422
I1
sV\u7acb\u3061\u4e0a\u304c\u308c,\u51b3\u7136\u3068!
p3423
I25
sV\u30d6\u30eb\u30fc\u30fb\u30b7\u30fc\u30c9\u30fb\u30d4\u30a2\u30ce\u30fb\u30b9\u30a4\u30fc\u30c8
p3424
I2
sV\u30cf\u30c3\u30b7\u30e3\u30d0\u30a4\u30fb\u30e9\u30e9\u30d0\u30a4
p3425
I0
sV\u8352\u3089\u3076\u308b\u795e\u3005
p3426
I2
sV\u30ce\u30b9\u30bf\u30eb\u30b8\u30a2
p3427
I1
sV\u795e\u79d8\u306a\u308b\u5973\u6027
p3428
I4
sV\u54cd\u304d\u5408\u3046\u9b42(\u307f\u305f\u307e)
p3429
I0
sV\u305d\u308c\u305e\u308c\u306e\u4e1a
p3430
I0
sV\u516b\u3064\u306e\u9b42(\u307f\u305f\u307e)\u3092\u6301\u3064\u7537~\u4e1b\u4e91
p3431
I5
ssVBLUE SEED \u97f3\u697d\u7f16 Vol.1
p3432
(dp3433
V\u30bf\u30c3\u30c1\u30fb\u30a2\u30f3\u30c9\u30fb\u30b4\u30fc!!
p3434
I19
sV\u7ea2\u53f6
p3435
I4
sV\u4e59\u5973\u5fc3\u304c\u71c3\u3048\u308b\u3068\u304d
p3436
I1
sV\u6b7b\u5211\u53f0\u306e\u5c11\u5973
p3437
I0
sV\u5c0f\u3055\u306a\u51b3\u610f
p3438
I1
sV\u7231\u306f\u3055\u3060\u3081 \u3055\u3060\u3081\u306f\u6b7b
p3439
I4
sV\u9ec4\u660f\u306e\u8857\u3078
p3440
I3
sV\u8349\u5243~\u8352\u795e\u306b\u9b45\u5165\u3089\u308c\u305f\u7537
p3441
I2
sV\u30ab\u30eb\u30ca\u30f4\u30a1\u30eb\u30fb\u30d0\u30d9\u30eb
p3442
I16
sV\u9752\u304d\u9b42
p3443
I5
sV\u6697\u306b\u95ed\u3056\u3055\u308c\u305f\u6b74\u53f2
p3444
I2
sV\u307e\u3064\u308d\u308f\u306c\u8005\u3069\u3082
p3445
I2
sV\u6697\u306e\u8df3\u6881\u8005
p3446
I2
sV\u88ad\u6483
p3447
I1
sV\u79c1\u306f\u8d1f\u3051\u306a\u3044!
p3448
I1
sV\u60aa\u9b3c\u306e\u547c\u3073\u58f0
p3449
I12
sV\u30ab\u30eb\u30ca\u30f4\u30a1\u30d0\u30eb\u30fb\u30d0\u30d9\u30eb~\u30ea\u30d7\u30e9\u30a4\u30ba
p3450
I3
sV\u56fd\u571f\u7ba1\u7406\u5ba4,\u51fa\u52a8\u305b\u3088
p3451
I16
sV\u5947\u7a32\u7530\u4f1d\u8aac
p3452
I3
sV\u8352\u795e\u306e\u6c17\u914d
p3453
I1
sV\u56fd\u571f\u7ba1\u7406\u5ba4\u306e\u7ea2\u53f6
p3454
I1
sV\u7126\u71e5
p3455
I3
ssV\u30a6\u30eb\u30c8\u30e9\u30de\u30f3\u30bc\u30ed THE MOVIE \u8d85\u51b3\u6226! \u30d9\u30ea\u30a2...
p3456
(dp3457
V\u6226\u58eb\u30b0\u30ec\u30f3\u30d5\u30a1\u30a4\u30a2\u30fc\u767b\u573a!
p3458
I19
sV\u5e1d\u56fd\u519b\u30c0\u30fc\u30af\u30b4\u30fc\u30cd\u306b\u8eab\u3092\u5448\u3057\u3066\u6226\u3046\u30b0\u30ec\u30f3\u30d5\u30a1\u30a4\u30e4\u30fc
p3459
I28
sV\u30a6\u30eb\u30c6\u30a3\u30e1\u30a4\u30c8\u30d5\u30a9\u30fc\u30b9\u30bc\u30ed\u306e\u8a93\u3044~\u3059\u3059\u3081!\u30a6\u30eb\u30c8\u30e9\u30de\u30f3\u30bc\u30ed
p3460
I117
sV\u30b8\u30e3\u30f3\u30d5\u30a1\u30a4\u30c8! 
p3461
I10
sV\u30ec\u30ae\u30aa\u30ce\u30a4\u30c9\u306b\u88ad\u6483\u3055\u308c\u308b\u30a2\u30cc\u30fc
p3462
I16
sV\u964d\u4e34\u3057\u305f\u30bc\u30ed
p3463
I15
sV\u30e9\u30f3\u306b\u8eab\u3092\u3086\u3060\u306d\u308b\u30bc\u30ed
p3464
I4
sV\u30a8\u30e1\u30e9\u30ca\u306e\u5b64\u72ec
p3465
I6
sV\u5371\u673a\u306e\u4e88\u5146
p3466
I6
sV\u80dc\u5229\u306b\u5bfc\u304f4\u4eba\u306e\u30d2\u30fc\u30ed\u30fc\u8fbe
p3467
I3
sV\u30bc\u30ed\u306e\u51b3\u610f
p3468
I5
sV\u30a6\u30eb\u30c6\u30a3\u30e1\u30a4\u30c8\u30bc\u30ed
p3469
I40
sV\u82cf\u751f\u3057\u305f\u30a8\u30e1\u30e9\u30ca\u59eb
p3470
I2
sV\u3042\u308a\u304c\u3068\u3046!\u30a6\u30eb\u30c8\u30e9\u30de\u30f3\u30bc\u30ed
p3471
I12
sV\u51b3\u610f\u3059\u308b3\u4eba
p3472
I8
sV\u30ef\u30b7\u3089\u6d77\u8d3c\u4e09\u5144\u5f1f
p3473
I9
sV\u30d9\u30ea\u30a2\u30eb\u94f6\u6cb3\u5e1d\u56fd \u6226\u6817\u306e\u30c6\u30fc\u30de
p3474
I28
sV\u30a2\u30fc\u30af\u30d9\u30ea\u30a2\u30eb\u306e\u30c6\u30fc\u30de
p3475
I29
sV\u30df\u30e9\u30fc\u30ca\u30a4\u30c8\u767b\u573a
p3476
I17
sV\u30bf\u30a4\u30c8\u30eb\u30d0\u30c3\u30af
p3477
I51
sV\u30d0\u30e9\u30fc\u30b8\u795e\u6bbf
p3478
I9
sV\u7a77\u5730\u306b\u7acb\u3063\u305f\u30e9\u30f3
p3479
I5
sV\u8fd0\u547d\u306b\u7ffb\u5f04\u3055\u308c\u308b\u30ca\u30aa
p3480
I3
sV\u30a6\u30eb\u30c8\u30e9\u30de\u30f3\u30bc\u30ed\u306e\u30c6\u30fc\u30de (E.Guitar version) 
p3481
I853
sV\u30a8\u30e1\u30e9\u30ca\u59eb\u306e\u7948\u308a
p3482
I13
sV\u30b8\u30e3\u30f3\u30d0\u30fc\u30c9?\u30d6\u30ea\u30c3\u30b8\u306b\u3066
p3483
I4
sV\u3059\u3059\u3081!\u30a6\u30eb\u30c8\u30e9\u30de\u30f3\u30bc\u30ed (\u6620\u753b version)
p3484
I54
sV\u30df\u30e9\u30fc\u30ca\u30a4\u30c8\u3092\u6d44\u5316\u3055\u305b\u308b\u30bc\u30ed
p3485
I45
sV\u955c\u306e\u661f\u306e\u30df\u30e9\u30fc\u30ca\u30a4\u30c8
p3486
I7
sV\u8fd0\u547d\u306e\u3057\u305a\u304f ~Destiny's star~ Ultramanzero Remix - remix
p3487
I211
sV\u661f\u306e\u89c1\u3048\u308b\u4e18 (\u8fd0\u547d\u306e\u3057\u305a\u304f ~Destiny's star~)
p3488
I3
sV\u30ab\u30a4\u30b6\u30fc\u30d9\u30ea\u30a2\u30eb\u306e\u30c6\u30fc\u30de
p3489
I12
sV\u30c0\u30fc\u30af\u30ed\u30d7\u30b9 vs \u30bc\u30ed
p3490
I40
ssS'TOMORROW'
p3491
(dp3492
VTOMORROW (without vocal)
p3493
I23
sVTOMORROW for BGM ~Strings version
p3494
I39
sVTOMORROW ~\u7b2c14\u8bdd\u30a8\u30f3\u30c7\u30a3\u30f3\u30b0\u30c6\u30fc\u30de~
p3495
I207
sVTOMORROW for BGM ~Piano version
p3496
I46
sVTOMORROW ~\u7b2c14\u8bdd\u30a8\u30f3\u30c7\u30a3\u30f3\u30b0\u30c6\u30fc\u30de~ (without vocal)
p3497
I6
sVTOMORROW
p3498
I462
ssV\u82b1\u306e\u3042\u3059\u304b\u7ec4!2
p3499
(dp3500
V\u30c7\u30a3\u30b9\u30b3\u201c\u88f8\u8db3\u3067DANCE\u201d
p3501
I0
sV\u7f60
p3502
I0
sV\u3072\u3044\u3089\u304e(\u3042\u3059\u304bvs\u30e8\u30fc\u30b3)
p3503
I0
sV\u654c!\u51fa\u73b0
p3504
I0
sV\u30df\u30b9\u30c6\u30ea\u30a2\u30b9
p3505
I0
sV\u8c0b\u7565
p3506
I1
sV\u3042\u3059\u304b\u306e\u30c6\u30fc\u30de1
p3507
I0
sV\u3042\u3059\u304b\u306e\u30c6\u30fc\u30de2
p3508
I0
sV\u3042\u3059\u304b\u306e\u30c6\u30fc\u30de3
p3509
I0
sV\u3042\u3059\u304b\u306e\u30c6\u30fc\u30de4
p3510
I0
sV\u30e4\u30b9\u30d2\u30ed
p3511
I0
sV\u30a4\u30f3\u30c8\u30ed\u30c0\u30af\u30b7\u30e7\u30f3(\u671d\u306e\u6c5f\u306e\u7535)
p3512
I0
sV\u3042\u3059\u304b\u3068\u30e8\u30fc\u30b3\u306e\u51fa\u4f1a\u3044
p3513
I0
sV\u30e1\u30a4\u30f3\u30fb\u30bf\u30a4\u30c8\u30eb
p3514
I9
sV\u3055\u308f\u3084\u304b\u306a\u573a\u9762
p3515
I0
sV\u3042\u3059\u304bvs\u6700\u9996
p3516
I0
sV\u80fd\u9762vs\u3042\u3059\u304b
p3517
I0
sV\u4f18\u96c5\u306a\u573a\u9762\u306e\u4e2d\u306e\u6050\u6016
p3518
I0
sV\u88f8\u8db3\u3067DANCE
p3519
I0
sV\u6700\u9996\u306e\u601d\u60d1
p3520
I0
sV\u60b2\u3057\u304d\u59c9\u59b9(\u30e8\u30fc\u30b3\u3068\u30df\u30b3)
p3521
I4
ssVTV\u30a2\u30cb\u30e1\u30fc\u30b7\u30e7\u30f3\u201c\u3072\u3050\u3089\u3057\u306e\u306a\u304f\u9877\u306b\u89e3\u201d...
p3522
(dp3523
V\u3082\u306e\u304c\u305f\u308a ~Piano ver.~
p3524
I29
sV\u4e88\u611f
p3525
I2
sV\u610f\u56f3 ~alternative ver.~
p3526
I2
sV\u88ab\u8650
p3527
I5
sV\u511a
p3528
I4
sV\u30cf\u30ea\u30ad\u3063\u3066\u884c\u3053\u3046! ~slow ver.~
p3529
I2
sV\u58ca\u706d
p3530
I2
sV\u5e73\u7a4f\u65e0\u4e8b ~slow ver.~
p3531
I5
sV\u88ab\u8650 ~another ver.~
p3532
I3
sV\u30df\u30c1\u30b7\u30eb\u30d9 ~Piano ver.~
p3533
I13
sV\u6fc0\u7a81
p3534
I2
sV\u5c71\u72d7
p3535
I3
sV\u30e1\u30a4\u30f3\u30fb\u30c6\u30fc\u30de - \u89e3 ~Piano ver.~
p3536
I8
sV\u30e1\u30a4\u30f3\u30fb\u30c6\u30fc\u30de - \u89e3
p3537
I15
sV\u3044\u3064\u3082\u901a\u308a
p3538
I6
sV\u304b\u308f\u3044\u3044\u30ab\u30df\u30b5\u30de
p3539
I2
sV\u6f5c\u884c
p3540
I1
sV\u5931\u610f
p3541
I7
sV\u7f60
p3542
I2
sV\u5948\u843d\u306e\u82b1 ~Short Ver.~ / \u5c9b\u307f\u3084\u3048\u3044\u5b50
p3543
I40
sV\u61d0\u7591
p3544
I2
sV\u5bbf\u671b
p3545
I4
sV\u89e3\u660e
p3546
I3
sV\u771f\u76f8
p3547
I2
sV\u30e1\u30a4\u30f3\u30fb\u30c6\u30fc\u30de - \u89e3 ~another ver.~
p3548
I31
sV\u9759\u304b\u306a\u308b\u6297\u8bae
p3549
I3
ssVKenji Kawai Original Masters vol.2 ~\u3088\u307f...
p3550
(dp3551
VHM-14
p3552
I0
sVR4 TM-2
p3553
I1
sV1M-10
p3554
I0
sV1M-6
p3555
I1
sV2M-2
p3556
I6
sV1M-2
p3557
I9
sV1M-5
p3558
I7
sV3M-8
p3559
I0
sV1M-1 (Apocalypse)
p3560
I4
sV1M-9
p3561
I4
sVTM-3 (VE Day)
p3562
I0
sVR3 1M-7 (Exodus)
p3563
I2
sV4M-1 (Pacific Attack)
p3564
I4
sVHM-11
p3565
I0
sV3M-1 (Shoah)
p3566
I0
sVHM-13
p3567
I0
sV5M-1
p3568
I1
sVTM-4 (Front Line)
p3569
I1
sV5M-3
p3570
I2
sVHM-17
p3571
I0
sVHM-19
p3572
I27
sV2M-7 (Neutral Theme)
p3573
I0
sVHM-8B
p3574
I0
sV2M-5A (Antoine de Saint-Exupery)
p3575
I1
sVR1 1M-4 (Farewell to Peace (strings Only) )
p3576
I4
sV4M-4 (Hiroshima)
p3577
I1
sV4M-3 (Paulua)
p3578
I0
sV2M-6 (Ghetto)
p3579
I0
sV3M-2 (Moscow)
p3580
I3
sVHM-2
p3581
I2
sVHM-3
p3582
I2
sV3M-5
p3583
I0
sVHM-1
p3584
I30
sVHM-6
p3585
I0
sVHM-7
p3586
I0
sVHM-4
p3587
I1
sVHM-5
p3588
I0
sVTM-6
p3589
I1
sVHM-9
p3590
I0
sV6M-2B (Liberation 2)
p3591
I1
sVTM-1
p3592
I1
sV6M-4
p3593
I0
sVTM-5 (The Trap)
p3594
I1
sV3M-6 2M-3 (Enigma and Dunkirk)
p3595
I2
sV2M-5B
p3596
I0
sV6M-3
p3597
I0
sVHM-12
p3598
I0
sVR2 1M-8 (Trap Invasion)
p3599
I2
sV1M-11 (Closing Theme)
p3600
I24
sVHM-15
p3601
I1
sV2M-1 (The Life Before the War)
p3602
I6
sV6M-1 (MacArthur)
p3603
I1
sVR6 1M-4 (Farewell to Peace)
p3604
I1
sVHM-16
p3605
I0
sV4M-8
p3606
I14
sV4M-9
p3607
I1
sV4M-6
p3608
I1
sV4M-7
p3609
I0
sV4M-5
p3610
I3
sVHM-10A
p3611
I1
sV2M-4 (Retreat)
p3612
I1
sV3M-7 (The Attack)
p3613
I9
sVR6 1M4 Pf (Peace)
p3614
I1
sVHM-21
p3615
I0
sVHM-20
p3616
I0
sVHM-23
p3617
I0
sV6M-2A (Liberation)
p3618
I0
sVR5 1M-3 (Rise of Nazism)
p3619
I3
ssV\u98ce\u4eba\u7269\u8bed
p3620
(dp3621
V\u98ce\u4f7f\u3044\u306e\u6d99
p3622
I0
sV\u98ce\u306d\u3053Dancing
p3623
I3
sV\u98ce\u306e\u59cb\u307e\u308a
p3624
I17
sV\u4e91\u305f\u3061\u306e\u60f3\u3044\u3067
p3625
I2
sV\u6625\u8272\u306e\u98ce
p3626
I6
sV\u98ce\u306e\u8bd7~WINDY TALES~
p3627
I83
sV\u98ce\u305f\u3061\u306e\u4e0d\u5b89
p3628
I3
sV\u540c\u3058\u7a7a\u306e\u4e0b\u3067
p3629
I7
sV\u51b7\u305f\u3044\u5357\u98ce
p3630
I2
sV\u98ce\u306d\u3053-I
p3631
I9
sV\u98ce\u4f7f\u3044\u306e\u3044\u305f\u305a\u3089
p3632
I0
sV\u982c\u306b\u5f53\u305f\u308b\u96e8\u7c92
p3633
I2
sV\u5915\u9633\u306e\u8272\u3060\u3051
p3634
I6
sV\u6728\u6f0f\u308c\u65e5\u3068\u305d\u3088\u98ce
p3635
I1
sV\u30ab\u30e1\u306d\u3053sisters
p3636
I1
sV\u604b\u306f\u590f\u98ce\u306b\u4e57\u3063\u3066
p3637
I0
sV\u98ce\u4f7f\u3044\u306e\u4f11\u65e5
p3638
I2
sV\u98ce\u3068\u30cf\u30df\u30f3\u30b0
p3639
I2
sV\u843d\u3061\u3066\u304d\u305d\u3046\u306a\u4e91\u305f\u3061
p3640
I2
sV\u98ce\u306d\u3053-II
p3641
I17
sV\u6c34\u305f\u307e\u308a\u306e\u7a7a
p3642
I2
sV\u98ce\u795e\u306e\u606f\u5439
p3643
I1
sV\u900f\u660e\u306a\u4e91
p3644
I1
sV\u98ce\u306e\u5553\u793a
p3645
I0
sV\u98ce\u305f\u3061\u306e\u4f11\u606f
p3646
I4
sV\u8703\u6c17\u697c\u306e\u70ed\u98ce
p3647
I0
sV\u98ce\u306d\u3053\u305f\u3061\u306e\u5fe7\u90c1
p3648
I1
sV\u98ce\u306b\u62b1\u304b\u308c\u3066
p3649
I2
sV\u60aa\u622f\u306a\u3064\u3080\u3058\u98ce
p3650
I4
sV\u3053\u306e\u7a7a\u306e\u5411\u3053\u3046\u306b
p3651
I1
sV\u5fc3\u306e\u4e2d\u306e\u98ce
p3652
I5
ssV\u4fe1\u957f\u306e\u91ce\u671b Online ~\u98de\u9f99\u306e\u7ae0~ \u30b3\u30f3\u30d7\u30ea\u30fc\u30c8...
p3653
(dp3654
V\u524d\u54e8\u6226
p3655
I5
sV\u6e05\u6d44
p3656
I7
sV\u4eac
p3657
I125
sV\u521b\u59cb
p3658
I6
sV\u5e73\u5b89
p3659
I20
sV\u7126\u71e5
p3660
I3
sV\u83ba\u8c37
p3661
I1
sV\u5927\u613f\u6210\u5c31
p3662
I8
sV\u77e5\u884c
p3663
I9
sV\u840c\u82bd
p3664
I19
sV\u5b88\u52bf
p3665
I9
sV\u906d\u9022
p3666
I7
sV\u5e73\u5730
p3667
I17
sV\u98ce\u96c5
p3668
I9
sV\u7834\u90aa
p3669
I13
sV\u8d25\u5317
p3670
I1
sV\u5e72\u5f0b
p3671
I5
sV\u5e7d\u970a
p3672
I5
sV\u96ea\u56fd
p3673
I21
sV\u5e7b\u5f71\u9986
p3674
I3
sV\u5546
p3675
I11
sV\u5bfe\u5cd9
p3676
I4
sV\u653b\u52bf
p3677
I10
sV\u7e41\u534e
p3678
I18
sV\u9f99\u722a\u5c71
p3679
I0
sV\u6700\u7ec8\u51b3\u6226
p3680
I26
sV\u60b2\u54c0
p3681
I6
sV\u80dc\u5229
p3682
I10
sV\u90aa\u60aa
p3683
I1
sV\u8fdb\u822a
p3684
I7
sV\u7adc\u864e
p3685
I12
sV\u6d77\u56fd
p3686
I13
sV\u95ed\u585e
p3687
I1
sV\u4e89\u8987
p3688
I3
sV\u68ee\u6797
p3689
I7
sV\u795e\u5723
p3690
I8
sV\u6b66
p3691
I6
sV\u6c38\u8bc0
p3692
I64
sV\u5c71\u56fd
p3693
I9
sV\u51fa\u6483
p3694
I15
sV\u7d76
p3695
I2
sV\u98ce\u4e91
p3696
I11
sV\u516b\u96f7\u795e
p3697
I1
ssV\u6a5f\u52d5\u6226\u58eb\u30ac\u30f3\u30c0\u30e0OO ORIGINAL SOUND TRACK ...
p3698
(dp3699
VUNKNOWN
p3700
I48
sVDAILY
p3701
I20
sVUNREST
p3702
I6
sVBEATING
p3703
I16
sVINTERVENTION
p3704
I42
sVCONTROL
p3705
I20
sVPOWER
p3706
I104
sVTURN BACK
p3707
I9
sVADMINISTRATION
p3708
I7
sVWINDLESS
p3709
I3
sVEXERCISE
p3710
I48
sVEYES
p3711
I12
sVTENSION
p3712
I5
sVUNION
p3713
I93
sVCOMMUNIST CAMP
p3714
I8
sVALARM BELL
p3715
I15
sVCRISIS
p3716
I4
sVLEAGUE
p3717
I19
sVATTACK
p3718
I9
sVHALLELUJAH
p3719
I4
sVINNOVATION
p3720
I127
sVSETSUNA
p3721
I32
ssV\u5267\u573a\u7248 Fate/stay night UNLIMITED BLADE W...
p3722
(dp3723
Vsacrifice\u732e\u796d(\u727a\u7272)
p3724
I4
sV\u76f8\u514b\u3059\u308b\u9b42
p3725
I4
sV\u30a8\u30df\u30e4-Kenji Kawai ver.-
p3726
I123
sV\u9c9c\u8840\u795e\u6bbf
p3727
I14
sV\u5929\u79e4\u306e\u5b88\u308a\u624b
p3728
I21
sV\u91cc\u5207\u308a\u306e\u4f1a\u5802
p3729
I5
sV\u6c38\u8fdc\u306e\u9082\u9005
p3730
I13
sVcounterattack \u53cd\u51fb
p3731
I11
sV\u4e8c\u4eba\u306e\u9f13\u52a8
p3732
I7
sV\u8feb\u308a\u6765\u308b\u6697
p3733
I5
sV\u731b\u706b\u5486\u54ee
p3734
I51
sVPrologue
p3735
I8
sV\u8fd0\u547d\u306e\u591c -UNLIMITED BLADE WORKS- 
p3736
I336
sV\u8aac\u660e\u5e0c\u671b!
p3737
I7
sV\u5e30\u308b\u3079\u304d\u573a\u6240
p3738
I102
sVVoice ~\u8fbf\u308a\u3064\u304f\u573a\u6240~(movie version)
p3739
I66
sV\u7406\u60f3\u306e\u679c\u3066
p3740
I6
sVeternity -last episode-
p3741
I17
sV\u9b54\u5973\u306e\u8bf1\u3044
p3742
I5
sV\u523b\u307e\u308c\u305f\u601d\u3044
p3743
I6
sV\u7834\u706d\u306e\u65cb\u5f8b
p3744
I7
sV\u51b3\u6226
p3745
I16
sV\u7ed3\u3070\u308c\u308b\u4e16\u754c
p3746
I33
ssVTV\u30a2\u30cb\u30e1\u30fc\u30b7\u30e7\u30f3\u300e\u30b8\u30e7\u30fc\u30ab\u30fc\u30fb\u30b2\u30fc\u30e0\u300f\u30b5...
p3747
(dp3748
V\u9759\u7a4f
p3749
I31
sV\u6697\u8e8d
p3750
I35
sV\u6f5c\u4f0f
p3751
I11
sV\u8131\u51fa
p3752
I22
sV\u8e8d\u52d5
p3753
I90
sV\u685c\u6625
p3754
I83
sV\u8ffd\u6483
p3755
I12
sV\u6b53\u9001
p3756
I40
sV\u7d50\u57ce
p3757
I17
sV\u906d\u9047
p3758
I34
sV\u98db\u9ce5
p3759
I20
sV\u63a2\u7d22
p3760
I18
sV\u8650\u653f
p3761
I9
sV\u62d8\u675f
p3762
I16
sV\u967d\u5149
p3763
I54
sV\u5f71\u97ff
p3764
I5
sV\u6575\u8972
p3765
I14
sV\u591c\u9727
p3766
I17
sV\u97dc\u7565
p3767
I8
sV\u7126\u7709
p3768
I7
sV\u63a8\u7406
p3769
I30
sV\u6a5f\u95a2
p3770
I79
sV\u54c0\u60bc
p3771
I41
sV\u8a08\u7565
p3772
I13
ssV\u4eba\u9c7c\u306e\u68eeO.S.T
p3773
(dp3774
V\u306a\u308a\u305d\u3053\u306a\u3044
p3775
I12
sV\u5e8f\u7ae0
p3776
I12
sV.\u6d77\u3078\u8fd8\u308b
p3777
I11
sV\u59c9\u59b9
p3778
I5
sV\u4eba\u9c7c\u4f1d\u8aac
p3779
I42
sV\u5f77\u5fa8\u306e\u68ee
p3780
I20
sV\u7ec8\u7ae0
p3781
I7
sV\u5909\u5f62
p3782
I7
sV\u65f6\u306e\u6f02\u6cca
p3783
I50
sV\u3082\u30461\u4eba\u306e\u81ea\u5206
p3784
I42
sV.\u6b7b\u95d8
p3785
I10
sV\u68ee\u3092\u306c\u3051\u3066~Born to love you
p3786
I39
sV\u53f3\u8155\u306e\u60aa\u9b54
p3787
I3
sV\u4eba\u9c7c\u51a2
p3788
I3
sV\u4eba\u55b0\u3044\u4eba\u9c7c
p3789
I2
sV\u60aa\u68a6
p3790
I3
sV\u4e88\u5146
p3791
I7
sV.\u72c2\u6c17\u306e\u4eea\u5f0f
p3792
I6
sV\u80fd\u767b\u534a\u5c9b\u795e\u65e0\u6728\u5c4b\u6577
p3793
I2
sV\u56de\u60f3
p3794
I19
sV\u91d1\u8272\u306e\u6d77
p3795
I5
sV\u662d\u548c11\u5e74.\u4e1c\u4eac\u2026
p3796
I9
ssS'Sound of GANTZ'
p3797
(dp3798
V\u9082\u9005
p3799
I2
sV\u30bb\u30ab\u30f3\u30c9\u30e9\u30a4\u30d5
p3800
I3
sV\u7530\u4e2d\u661f\u4eba
p3801
I5
sV\u56de\u751f
p3802
I5
sV\u7ea0\u5408\u306e\u949f
p3803
I1
sVWAX ON
p3804
I6
sV\u5553\u8499\u653e\u5c04
p3805
I3
sV\u76ee\u899a\u3081\u306c\u68a6
p3806
I2
sV\u9ed2\u70b9\u8d77\u52a8
p3807
I6
sV\u8ee2\u9001
p3808
I2
sV\u8ffd\u8d70\u30ab\u30ce\u30f3
p3809
I4
sV\u5947\u88ad
p3810
I6
sV\u5931\u308f\u308c\u305f\u5149
p3811
I7
sV\u53cb
p3812
I90
sV\u5343\u624b \u5723\u6226\u306e\u306f\u3058\u307e\u308a
p3813
I3
sVRESURRECTION IN THE GANTZ FIELD-\u590d\u6d3b-
p3814
I37
sV\u82cf\u308b\u9f13\u52a8
p3815
I3
sV\u82f1\u96c4
p3816
I2
sV\u30e9\u30b8\u30aa\u4f53\u64cd\u306e\u6b4c
p3817
I65
sV\u76ee\u899a\u3081\u308b\u68a6
p3818
I2
sV\u590d\u8b90
p3819
I2
sV\u30e1\u30c3\u30bb\u30fc\u30b8
p3820
I1
sVBOOT UP KURONO-\u8d77\u52a8-
p3821
I8
sV\u4ec1\u738b \u592a\u53e4\u304b\u3089\u306e\u76ee\u899a\u3081
p3822
I2
ssV\u602a\u8c08
p3823
(dp3824
V\u304a\u4e45\u6740\u3057
p3825
I3
sV\u4e09\u8535\u6740\u3057
p3826
I1
sV\u518d\u5f00
p3827
I7
sV\u706b\u4f24
p3828
I1
sV\u5b97\u60a6\u6740\u3057
p3829
I7
sV\u51fa\u6765\u4e8b
p3830
I2
sV\u9003\u4ea1
p3831
I3
sV\u7d2f\u30f6\u6e0a\u3078
p3832
I6
sV\u96ea\u306e\u5bfc\u304d
p3833
I1
sV\u6ce3\u304b\u306a\u3044\u8d64\u3093\u574a
p3834
I2
sV\u6d99
p3835
I7
sV\u602a\u8c08\u306e\u306f\u3058\u307e\u308a
p3836
I4
sV\u795f\u308a
p3837
I2
sV\u8c4a\u5fd7\u8d3a\u306e\u6b7b
p3838
I4
sV\u602a\u8c08\u306e\u304a\u3057\u307e\u3044
p3839
I92
sV\u99c6\u3051\u843d\u3061
p3840
I3
sV\u304a\u56ed\u306e\u4e88\u611f
p3841
I1
sV\u5ac9\u59ac
p3842
I3
sV\u304a\u7d2f\u6740\u3057
p3843
I2
sV\u304a\u7d2f\u306e\u5a5a\u793c
p3844
I2
sV\u96ea\u306b\u7ed3\u3070\u308c
p3845
I5
ssVRAVE \u30aa\u30ea\u30b8\u30ca\u30eb\u30b5\u30a6\u30f3\u30c9\u30c8\u30e9\u30c3\u30af III\u201cMUS...
p3846
(dp3847
V\u97f3\u901f\u306e\u5263 \u30b7\u30eb\u30d5\u30a1\u30ea\u30aa\u30f3
p3848
I0
sV\u30b7\u30d0\u306e\u8fc7\u53bb
p3849
I0
sV\u7adc\u795e\u30fb\u30ec\u30c3\u30c8
p3850
I0
sV\u30a8\u30ea\u30fc\u306e\u8bb0\u5fc6
p3851
I0
sV\u305d\u3057\u3066\u3001\u5e73\u7a4f\u306a\u65e5\u3005
p3852
I1
sV\u5909\u306a\u751f\u304d\u7269\u306e\u5909\u306a\u751f\u6001
p3853
I3
sV3173\u306e\u5973
p3854
I0
sV\u30a8\u30ea\u30fc\u306e\u60b2\u3057\u307f
p3855
I0
sV\u30cf\u30eb\u30fb\u4e0d\u5b89
p3856
I2
sV\u30ad\u30f3\u30b0
p3857
I1
sV\u661f\u964d\u308a\u306e\u5730
p3858
I0
sV\u98de\u884c\u8239 (TV SIZE Ver.)
p3859
I5
sV\u5b89\u3089\u304e
p3860
I0
sV\u30ac\u30e9\u30fc\u30b8\u30e5\u5c9b\u306e\u65e5\u3005
p3861
I3
sV\u30b2\u30a4\u30eb\u3068\u30ad\u30f3\u30b0\u30fb\u60b2\u5267
p3862
I0
sV\u30cf\u30eb\u30fb\u518d\u3073
p3863
I1
sV\u30ec\u30a4\u30f4\u30de\u30b9\u30bf\u30fc\u306e\u6226\u3044
p3864
I0
sVHigher and Higher (TV SIZE Ver.)
p3865
I11
sV\u30b0\u30ea\u30d5\u30a9\u30f3\u52a0\u85e4
p3866
I0
sV\u65c5\u306e\u7d9a\u304d
p3867
I3
sV\u30aa\u30e9\u30b7\u30aa\u30f3\u30bb\u30a4\u30b9
p3868
I0
sV\u30bf\u30f3\u30c1\u30e2
p3869
I0
sV\u6b7b\u95d8
p3870
I0
sV\u30b7\u30eb\u30d0\u30ea\u30ba\u30e0\u306e\u30e0\u30b8\u30ab
p3871
I0
sV\u30d6\u30eb\u30fc\u306a\u65e5\u5e38
p3872
I0
sV\u65b0\u3057\u3044\u654c
p3873
I0
ssV\u673a\u52a8\u8b66\u5bdf\u30d1\u30c8\u30ec\u30a4\u30d0\u30fc 2 the Movie
p3874
(dp3875
VUnnatural City2(2002\u30f4\u30a1\u30fc\u30b8\u30e7\u30f3/M-9)
p3876
I3
sVTheme of PATLABOR 2(\u30b1\u30f3\u30b8\u30fb\u30ab\u30ef\u30a4\u30fb\u30f4\u30a1\u30fc\u30b8\u30e7\u30f3)
p3877
I21
sVportent(2002\u30f4\u30a1\u30fc\u30b8\u30e7\u30f3/M-3)
p3878
I3
sVzoom down(2002\u30f4\u30a1\u30fc\u30b8\u30e7\u30f3)
p3879
I1
sVWyvern(2002\u30f4\u30a1\u30fc\u30b8\u30e7\u30f3/M-6)
p3880
I11
sVAsia(\u30d7\u30ea\u30df\u30c6\u30a3\u30f4\u30fb\u30f4\u30a1\u30fc\u30b8\u30e7\u30f3~2002REMIX/M-5) - remix
p3881
I3
sVTheme of PATLABOR2(2002\u30f4\u30a1\u30fc\u30b8\u30e7\u30f3/M-2)
p3882
I27
sVat Parting(2002REMIX/M-14a) - remix
p3883
I2
sVUnnatural City
p3884
I1
sV\u2026with Love
p3885
I6
sVAsia
p3886
I2
sV\u2026with Love(2002REMIX/M-10) - remix
p3887
I18
sVfrom Asia(M-0)
p3888
I8
sVHallucination(2002\u30f4\u30a1\u30fc\u30b8\u30e7\u30f3/M-14b)
p3889
I47
sVOutbreak(2002\u30f4\u30a1\u30fc\u30b8\u30e7\u30f3/M-11)
p3890
I5
sVAsia(2002\u30f4\u30a1\u30fc\u30b8\u30e7\u30f3/M-8)
p3891
I5
sVIndication(\u5146\u5019)
p3892
I6
sV\u201cIXTL\u201d(2002\u30f4\u30a1\u30fc\u30b8\u30e7\u30f3/M-13)
p3893
I7
sVUnnatural City1(2002\u30f4\u30a1\u30fc\u30b8\u30e7\u30f3/M-7)
p3894
I2
ssS'Blue Seed Too'
p3895
(dp3896
VFutari no Yoake
p3897
I6
sVEternal Truth
p3898
I2
sV"Fujimiya Momiji no Tokyo Boogie Night"
p3899
I0
sVValencia
p3900
I1
sVKyouhaku
p3901
I0
sVJuurinsareru Heion
p3902
I0
sVShousou
p3903
I0
sVAkumu wa Futatabi
p3904
I0
sVUtsurou Toki, Utsuro na Kokoro
p3905
I0
sVKOKUDOS IN AMERICA
p3906
I0
sVKinchou
p3907
I0
sV"Kunikida Kaede no Tokyo Boogie Night"
p3908
I0
sVKyoufu
p3909
I1
sVKeiryaku
p3910
I0
sVTouyou no Hijutsu
p3911
I1
sVShukumei wo Tachite
p3912
I0
sV"Monsieur Murakumo no Tokyo Boogie Night"
p3913
I0
sVCOUNTDOWN
p3914
I0
sVSECOND KISS
p3915
I3
sVBLUE SEED Dai-27-wa "Yume no Ukihashi"
p3916
I1
sVSugisarishi Hibi no Yume
p3917
I0
sVOperation Mitama
p3918
I0
ssV\u30c8\u30ef\u30a4\u30e9\u30a4\u30c8Q \u30aa\u30ea\u30b8\u30ca\u30eb\u30fb\u30b5\u30a6\u30f3\u30c9\u30c8\u30e9\u30c3...
p3919
(dp3920
V\u8150\u3063\u305f\u6d77
p3921
I0
sV\u6bd2\u306e\u9727
p3922
I0
sV\u6642\u306e\u7d50\u3073\u76ee
p3923
I0
sV\u8abf\u66f8\u2160 \u4ed5\u4e8b\u306b\u4e0d\u81ea\u7531\u306a\u63a2\u5075
p3924
I0
sV\u8abf\u66f8\u2161 \u8ff7\u5bae\u7269\u4ef6
p3925
I0
sV\u30ea\u30d5\u30ec\u30af\u30b7\u30e7\u30f3
p3926
I1
sV\u3050\u3046\u305f\u3089\u306a\u9b5a
p3927
I5
sV\u591c\u76d7\u306e\u5982\u304f
p3928
I1
sV\u57cb\u7acb\u5730\u306e\u5c0f\u3055\u306a\u795e\u69d8-\u30d7\u30ed\u30ed\u30fc\u30b0
p3929
I0
sV\u8d64\u6f6e
p3930
I1
sV\u8abf\u66f8\u2163 \u5730\u56f3\u306e\u306a\u3044\u8857
p3931
I1
sV\u9055\u548c\u611f
p3932
I0
sV\u967d\u708e\u306e\u4e2d\u306e\u65e5\u5e38
p3933
I0
sV\u5b58\u5728\u3057\u306a\u3044\u88fd\u9020\u756a\u53f7
p3934
I0
sVOSAKANA
p3935
I0
sV\u84b8\u767a
p3936
I0
sV\u3075\u3057\u304e\u306a\u30b9\u30ca\u30c3\u30d7
p3937
I0
sV\u55ab\u8336\u30b5\u30fc\u30ea\u30f3\u30b0\u2161
p3938
I0
sV\u55ab\u8336\u30b5\u30fc\u30ea\u30f3\u30b0\u2160
p3939
I0
sV\u5b89\u5835
p3940
I0
sV\u57cb\u7acb\u5730\u306e\u5c0f\u3055\u306a\u795e\u69d8
p3941
I0
sV\u8d70\u308b!
p3942
I0
sV\u8abf\u66f8\u2162 \u56db\u7573\u534a\u306e\u5ec3\u589f
p3943
I1
ssS'ANOTHER SOUND OF 009 RE:CYBORG'
p3944
(dp3945
V\u8d64\u3044\u9774\u30b5\u30a4\u30dc\u30fc\u30b0003: \u30d5\u30e9\u30f3\u30bd\u30ef\u30fc\u30ba\u30fb\u30a2\u30eb\u30cc\u30fc\u30eb
p3946
I4
sV\u7a7a\u3063\u307d\u306e\u90e8\u5c4b - RESET TO ZERO
p3947
I0
sV\u8ab0\u304c\u305f\u3081\u306b - 2012ver.
p3948
I2
sVHIS VOICE IS ...
p3949
I5
sV\u8ab0\u304c\u305f\u3081\u306b
p3950
I3
sVLOOP ROLLER COASTER!!!KYONO DJBAKU!!!
p3951
I1
sVMID REPORT
p3952
I0
sVLISTEN TO MY HEART\u30b5\u30a4\u30dc\u30fc\u30b0009:\u5cf6\u6751\u30b8\u30e7\u30fc
p3953
I15
sVRE:OPENING\u30ab\u30ef\u30a4\u30d2\u30c7\u30d2\u30ed
p3954
I0
ss.