(dp0
V\u4ecd\u7136\u559c\u6b22\u6211
p1
(dp2
V\u4eca\u591c
p3
I60
sV\u4ecd\u611f\u6fc0\u76f8\u7231\u4e86\u4e00\u5e74
p4
I137
ssV\u7a7a\u7a7a\u7684\u5fc3
p5
(dp6
V\u75f4\u75f4\u7737\u604b
p7
I3
sV\u4f55\u65f6\u624d\u80fd\u91cd\u9047\u89c1
p8
I4
sVI Need You
p9
I7
ss.