(dp0
VI'm \u8427\u8427
p1
(dp2
V\u7b28\u9e1f
p3
I58
sVDaddy's Little Girl
p4
I63
ssS'Beautiful Angel'
p5
(dp6
V\u76f4\u5230\u6700\u540e\u90a3\u5929
p7
I94
sVBand-Aid
p8
I34
ssV\u54ce\u5537
p9
(dp10
V\u54ce\u5537
p11
I32
ss.