(dp0
V\u5bb6\u4e61
p1
(dp2
V\u5bb6\u4e61
p3
I9907
ssV\u65e0\u6cd5\u957f\u5927
p4
(dp5
V\u65e0\u6cd5\u957f\u5927
p6
I55501
ssV\u8d75\u5c0f\u96f7
p7
(dp8
V\u5f00\u5f80\u5317\u4eac\u7684\u706b\u8f66
p9
I3363
sV\u8d75\u5c0f\u96f7
p10
I5118
sV\u5357\u65b9\u59d1\u5a18 (\u5f39\u5531\u7248)
p11
I6507
sV\u672a\u7ed9\u59d0\u59d0\u9012\u51fa\u7684\u4fe1
p12
I14861
sV\u5988\u5988
p13
I12663
sV\u4e0d\u5f00\u7684\u5507
p14
I5345
sV\u6c11\u8c23
p15
I2051
sV\u5357\u65b9\u59d1\u5a18
p16
I127727
sV\u80cc\u5f71
p17
I6183
sV\u4eba\u5bb6
p18
I5621
sVOver
p19
I3478
sV\u753b
p20
I41673
ssV\u518d\u4e5f\u4e0d\u4f1a\u53bb\u4e3d\u6c5f
p21
(dp22
V\u518d\u4e5f\u4e0d\u4f1a\u53bb\u4e3d\u6c5f
p23
I14284
ssV\u6210\u90fd
p24
(dp25
V\u6210\u90fd
p26
I330876
ssV\u5409\u59c6\u9910\u5385
p27
(dp28
V\u5bb6\u4e61
p29
I9987
sV\u7406\u60f3
p30
I86158
sV\u4e09\u5341\u5c81\u7684\u5973\u4eba
p31
I61190
sV\u5c11\u5e74\u9526\u65f6
p32
I50530
sV\u6d6e\u6e38
p33
I4584
sV\u68a6\u4e2d\u7684\u54c8\u5fb7\u68ee
p34
I7358
sV\u5409\u59c6\u9910\u5385
p35
I18807
sV\u5c0f\u5c4b
p36
I5086
sV\u6211\u4eec\u7684\u65f6\u5149
p37
I25897
sV\u5317\u4eac\u7684\u51ac\u5929
p38
I5698
ss.