(dp0
V\u9ec4\u73ab\u7470
p1
(dp2
V\u8774\u8776\u59d0\u59d0
p3
I12
sV\u4e91\u7684\u7fc5\u8180
p4
I17
sV\u9ec4\u73ab\u7470
p5
I764
sV\u6211\u662f\u4e00\u6ef4\u6c34
p6
I3
sV\u5343\u79a7\u65b0\u5a18
p7
I60
sV\u96be\u5fcd\u7684\u60b2
p8
I43
sV2006.\u96ea
p9
I22
sV\u80cc\u666f
p10
I13
sV\u7231\u4e0a\u53cc\u9c7c\u5ea7
p11
I165
sV\u522b\u592a\u665a\u56de\u5bb6
p12
I66
sV\u94c1\u7bf1\u7b06\u4e0a\u7684\u5851\u6599\u53e3\u888b
p13
I18
ss.